(lp0
cnumpy.core.multiarray
_reconstruct
p1
(cnumpy
ndarray
p2
(I0
tp3
S'b'
p4
tp5
Rp6
(I1
(I2
tp7
cnumpy
dtype
p8
(S'O8'
p9
I0
I1
tp10
Rp11
(I3
S'|'
p12
NNNI-1
I-1
I63
tp13
bI00
(lp14
S'Massata'
p15
aNatp16
bag1
(g2
(I0
tp17
g4
tp18
Rp19
(I1
(I2
tp20
g11
I00
(lp21
S'muerto'
p22
aNatp23
bag1
(g2
(I0
tp24
g4
tp25
Rp26
(I1
(I2
tp27
g11
I00
(lp28
S'viata'
p29
aNatp30
bag1
(g2
(I0
tp31
g4
tp32
Rp33
(I1
(I2
tp34
g11
I00
(lp35
S'Koczy'
p36
aNatp37
bag1
(g2
(I0
tp38
g4
tp39
Rp40
(I1
(I2
tp41
g11
I00
(lp42
S'Weeknds'
p43
aNatp44
bag1
(g2
(I0
tp45
g4
tp46
Rp47
(I1
(I2
tp48
g11
I00
(lp49
S'18-part'
p50
aNatp51
bag1
(g2
(I0
tp52
g4
tp53
Rp54
(I1
(I2
tp55
g11
I00
(lp56
S'23000'
p57
aNatp58
bag1
(g2
(I0
tp59
g4
tp60
Rp61
(I1
(I2
tp62
g11
I00
(lp63
S'entertainingli'
p64
aNatp65
bag1
(g2
(I0
tp66
g4
tp67
Rp68
(I1
(I2
tp69
g11
I00
(lp70
S'Laudenbachs'
p71
aNatp72
bag1
(g2
(I0
tp73
g4
tp74
Rp75
(I1
(I2
tp76
g11
I00
(lp77
S'Krispie'
p78
aNatp79
bag1
(g2
(I0
tp80
g4
tp81
Rp82
(I1
(I2
tp83
g11
I00
(lp84
S'FIBAs'
p85
aNatp86
bag1
(g2
(I0
tp87
g4
tp88
Rp89
(I1
(I2
tp90
g11
I00
(lp91
S'Belleme'
p92
aNatp93
bag1
(g2
(I0
tp94
g4
tp95
Rp96
(I1
(I2
tp97
g11
I00
(lp98
S'Wolfond'
p99
aNatp100
bag1
(g2
(I0
tp101
g4
tp102
Rp103
(I1
(I2
tp104
g11
I00
(lp105
S'M-16'
p106
aNatp107
bag1
(g2
(I0
tp108
g4
tp109
Rp110
(I1
(I2
tp111
g11
I00
(lp112
S'Bamuthi'
p113
aNatp114
bag1
(g2
(I0
tp115
g4
tp116
Rp117
(I1
(I2
tp118
g11
I00
(lp119
S'backho'
p120
aNatp121
bag1
(g2
(I0
tp122
g4
tp123
Rp124
(I1
(I2
tp125
g11
I00
(lp126
S'conniv'
p127
aNatp128
bag1
(g2
(I0
tp129
g4
tp130
Rp131
(I1
(I2
tp132
g11
I00
(lp133
S'Thubrons'
p134
aNatp135
bag1
(g2
(I0
tp136
g4
tp137
Rp138
(I1
(I2
tp139
g11
I00
(lp140
S'hydrotherapi'
p141
aNatp142
bag1
(g2
(I0
tp143
g4
tp144
Rp145
(I1
(I2
tp146
g11
I00
(lp147
S'Shondaland'
p148
aNatp149
bag1
(g2
(I0
tp150
g4
tp151
Rp152
(I1
(I2
tp153
g11
I00
(lp154
S'Exil'
p155
aNatp156
bag1
(g2
(I0
tp157
g4
tp158
Rp159
(I1
(I2
tp160
g11
I00
(lp161
S'glassmak'
p162
aNatp163
bag1
(g2
(I0
tp164
g4
tp165
Rp166
(I1
(I2
tp167
g11
I00
(lp168
S'76000'
p169
aNatp170
bag1
(g2
(I0
tp171
g4
tp172
Rp173
(I1
(I2
tp174
g11
I00
(lp175
S'grata'
p176
aNatp177
bag1
(g2
(I0
tp178
g4
tp179
Rp180
(I1
(I2
tp181
g11
I00
(lp182
S'15-13'
p183
aNatp184
bag1
(g2
(I0
tp185
g4
tp186
Rp187
(I1
(I2
tp188
g11
I00
(lp189
S'superlux'
p190
aNatp191
bag1
(g2
(I0
tp192
g4
tp193
Rp194
(I1
(I2
tp195
g11
I00
(lp196
S'companywid'
p197
aNatp198
bag1
(g2
(I0
tp199
g4
tp200
Rp201
(I1
(I2
tp202
g11
I00
(lp203
S'Sanitizers'
p204
aNatp205
bag1
(g2
(I0
tp206
g4
tp207
Rp208
(I1
(I2
tp209
g11
I00
(lp210
S'Wertmuller'
p211
aNatp212
bag1
(g2
(I0
tp213
g4
tp214
Rp215
(I1
(I2
tp216
g11
I00
(lp217
S'morphin'
p218
aNatp219
bag1
(g2
(I0
tp220
g4
tp221
Rp222
(I1
(I2
tp223
g11
I00
(lp224
S'measli'
p225
aNatp226
bag1
(g2
(I0
tp227
g4
tp228
Rp229
(I1
(I2
tp230
g11
I00
(lp231
S'Artbag'
p232
aNatp233
bag1
(g2
(I0
tp234
g4
tp235
Rp236
(I1
(I2
tp237
g11
I00
(lp238
S'Breslins'
p239
aNatp240
bag1
(g2
(I0
tp241
g4
tp242
Rp243
(I1
(I2
tp244
g11
I00
(lp245
S'waterlog'
p246
aNatp247
bag1
(g2
(I0
tp248
g4
tp249
Rp250
(I1
(I2
tp251
g11
I00
(lp252
S'Rauniyar'
p253
aNatp254
bag1
(g2
(I0
tp255
g4
tp256
Rp257
(I1
(I2
tp258
g11
I00
(lp259
S'Polednas'
p260
aNatp261
bag1
(g2
(I0
tp262
g4
tp263
Rp264
(I1
(I2
tp265
g11
I00
(lp266
S'Lekkala'
p267
aNatp268
bag1
(g2
(I0
tp269
g4
tp270
Rp271
(I1
(I2
tp272
g11
I00
(lp273
S'trusti'
p274
aNatp275
bag1
(g2
(I0
tp276
g4
tp277
Rp278
(I1
(I2
tp279
g11
I00
(lp280
S'Stapletons'
p281
aNatp282
bag1
(g2
(I0
tp283
g4
tp284
Rp285
(I1
(I2
tp286
g11
I00
(lp287
S'Garfields'
p288
aNatp289
bag1
(g2
(I0
tp290
g4
tp291
Rp292
(I1
(I2
tp293
g11
I00
(lp294
S'Pressons'
p295
aNatp296
bag1
(g2
(I0
tp297
g4
tp298
Rp299
(I1
(I2
tp300
g11
I00
(lp301
S'Parlan'
p302
aNatp303
bag1
(g2
(I0
tp304
g4
tp305
Rp306
(I1
(I2
tp307
g11
I00
(lp308
S'Fybish'
p309
aNatp310
bag1
(g2
(I0
tp311
g4
tp312
Rp313
(I1
(I2
tp314
g11
I00
(lp315
S'311th'
p316
aNatp317
bag1
(g2
(I0
tp318
g4
tp319
Rp320
(I1
(I2
tp321
g11
I00
(lp322
S'Zandvliets'
p323
aNatp324
bag1
(g2
(I0
tp325
g4
tp326
Rp327
(I1
(I2
tp328
g11
I00
(lp329
S'1882'
p330
aNatp331
bag1
(g2
(I0
tp332
g4
tp333
Rp334
(I1
(I2
tp335
g11
I00
(lp336
S'2070'
p337
aNatp338
bag1
(g2
(I0
tp339
g4
tp340
Rp341
(I1
(I2
tp342
g11
I00
(lp343
S'centripet'
p344
aNatp345
bag1
(g2
(I0
tp346
g4
tp347
Rp348
(I1
(I2
tp349
g11
I00
(lp350
S'Sadats'
p351
aNatp352
bag1
(g2
(I0
tp353
g4
tp354
Rp355
(I1
(I2
tp356
g11
I00
(lp357
S'Braziller'
p358
aNatp359
bag1
(g2
(I0
tp360
g4
tp361
Rp362
(I1
(I2
tp363
g11
I00
(lp364
S'Oczy'
p365
aNatp366
bag1
(g2
(I0
tp367
g4
tp368
Rp369
(I1
(I2
tp370
g11
I00
(lp371
S'speciou'
p372
aNatp373
bag1
(g2
(I0
tp374
g4
tp375
Rp376
(I1
(I2
tp377
g11
I00
(lp378
S'Chakrabortys'
p379
aNatp380
bag1
(g2
(I0
tp381
g4
tp382
Rp383
(I1
(I2
tp384
g11
I00
(lp385
S'Jarmuschs'
p386
aNatp387
bag1
(g2
(I0
tp388
g4
tp389
Rp390
(I1
(I2
tp391
g11
I00
(lp392
S'Taleses'
p393
aNatp394
bag1
(g2
(I0
tp395
g4
tp396
Rp397
(I1
(I2
tp398
g11
I00
(lp399
S'bellyach'
p400
aNatp401
bag1
(g2
(I0
tp402
g4
tp403
Rp404
(I1
(I2
tp405
g11
I00
(lp406
S'Brohn'
p407
aNatp408
bag1
(g2
(I0
tp409
g4
tp410
Rp411
(I1
(I2
tp412
g11
I00
(lp413
S'cantanker'
p414
aNatp415
bag1
(g2
(I0
tp416
g4
tp417
Rp418
(I1
(I2
tp419
g11
I00
(lp420
S'unreligi'
p421
aNatp422
bag1
(g2
(I0
tp423
g4
tp424
Rp425
(I1
(I2
tp426
g11
I00
(lp427
S'Sulds'
p428
aNatp429
bag1
(g2
(I0
tp430
g4
tp431
Rp432
(I1
(I2
tp433
g11
I00
(lp434
S'lont'
p435
aNatp436
bag1
(g2
(I0
tp437
g4
tp438
Rp439
(I1
(I2
tp440
g11
I00
(lp441
S'Diacaria'
p442
aNatp443
bag1
(g2
(I0
tp444
g4
tp445
Rp446
(I1
(I2
tp447
g11
I00
(lp448
S'80-odd'
p449
aNatp450
bag1
(g2
(I0
tp451
g4
tp452
Rp453
(I1
(I2
tp454
g11
I00
(lp455
S'Posners'
p456
aNatp457
bag1
(g2
(I0
tp458
g4
tp459
Rp460
(I1
(I2
tp461
g11
I00
(lp462
S'17-20'
p463
aNatp464
bag1
(g2
(I0
tp465
g4
tp466
Rp467
(I1
(I2
tp468
g11
I00
(lp469
S'HiRise'
p470
aNatp471
bag1
(g2
(I0
tp472
g4
tp473
Rp474
(I1
(I2
tp475
g11
I00
(lp476
S'110-meter'
p477
aNatp478
bag1
(g2
(I0
tp479
g4
tp480
Rp481
(I1
(I2
tp482
g11
I00
(lp483
S'15-member'
p484
aNatp485
bag1
(g2
(I0
tp486
g4
tp487
Rp488
(I1
(I2
tp489
g11
I00
(lp490
S'Bornarth'
p491
aNatp492
bag1
(g2
(I0
tp493
g4
tp494
Rp495
(I1
(I2
tp496
g11
I00
(lp497
S'Crutchfields'
p498
aNatp499
bag1
(g2
(I0
tp500
g4
tp501
Rp502
(I1
(I2
tp503
g11
I00
(lp504
S'Fastook'
p505
aNatp506
bag1
(g2
(I0
tp507
g4
tp508
Rp509
(I1
(I2
tp510
g11
I00
(lp511
S'hurriedli'
p512
aNatp513
bag1
(g2
(I0
tp514
g4
tp515
Rp516
(I1
(I2
tp517
g11
I00
(lp518
S'Ghogre'
p519
aNatp520
bag1
(g2
(I0
tp521
g4
tp522
Rp523
(I1
(I2
tp524
g11
I00
(lp525
S'culturalment'
p526
aNatp527
bag1
(g2
(I0
tp528
g4
tp529
Rp530
(I1
(I2
tp531
g11
I00
(lp532
S'Roupa'
p533
aNatp534
bag1
(g2
(I0
tp535
g4
tp536
Rp537
(I1
(I2
tp538
g11
I00
(lp539
S'moonston'
p540
aNatp541
bag1
(g2
(I0
tp542
g4
tp543
Rp544
(I1
(I2
tp545
g11
I00
(lp546
S'33-pound'
p547
aNatp548
bag1
(g2
(I0
tp549
g4
tp550
Rp551
(I1
(I2
tp552
g11
I00
(lp553
S'selvag'
p554
aNatp555
bag1
(g2
(I0
tp556
g4
tp557
Rp558
(I1
(I2
tp559
g11
I00
(lp560
S'housewar'
p561
aNatp562
bag1
(g2
(I0
tp563
g4
tp564
Rp565
(I1
(I2
tp566
g11
I00
(lp567
S'ThisIsNotYourFaultAriana'
p568
aNatp569
bag1
(g2
(I0
tp570
g4
tp571
Rp572
(I1
(I2
tp573
g11
I00
(lp574
S'Cilics'
p575
aNatp576
bag1
(g2
(I0
tp577
g4
tp578
Rp579
(I1
(I2
tp580
g11
I00
(lp581
S'Crackles'
p582
aNatp583
bag1
(g2
(I0
tp584
g4
tp585
Rp586
(I1
(I2
tp587
g11
I00
(lp588
S'atiborrada'
p589
aNatp590
bag1
(g2
(I0
tp591
g4
tp592
Rp593
(I1
(I2
tp594
g11
I00
(lp595
S'Ganzells'
p596
aNatp597
bag1
(g2
(I0
tp598
g4
tp599
Rp600
(I1
(I2
tp601
g11
I00
(lp602
S'5300'
p603
aNatp604
bag1
(g2
(I0
tp605
g4
tp606
Rp607
(I1
(I2
tp608
g11
I00
(lp609
S'efficaci'
p610
aNatp611
bag1
(g2
(I0
tp612
g4
tp613
Rp614
(I1
(I2
tp615
g11
I00
(lp616
S'mercenari'
p617
aNatp618
bag1
(g2
(I0
tp619
g4
tp620
Rp621
(I1
(I2
tp622
g11
I00
(lp623
S'56-6'
p624
aNatp625
bag1
(g2
(I0
tp626
g4
tp627
Rp628
(I1
(I2
tp629
g11
I00
(lp630
S'56-0'
p631
aNatp632
bag1
(g2
(I0
tp633
g4
tp634
Rp635
(I1
(I2
tp636
g11
I00
(lp637
S'Croatias'
p638
aNatp639
bag1
(g2
(I0
tp640
g4
tp641
Rp642
(I1
(I2
tp643
g11
I00
(lp644
S'Pondicheri'
p645
aNatp646
bag1
(g2
(I0
tp647
g4
tp648
Rp649
(I1
(I2
tp650
g11
I00
(lp651
S'Arond'
p652
aNatp653
bag1
(g2
(I0
tp654
g4
tp655
Rp656
(I1
(I2
tp657
g11
I00
(lp658
S'Reawaken'
p659
aNatp660
bag1
(g2
(I0
tp661
g4
tp662
Rp663
(I1
(I2
tp664
g11
I00
(lp665
S'Kamuina'
p666
aNatp667
bag1
(g2
(I0
tp668
g4
tp669
Rp670
(I1
(I2
tp671
g11
I00
(lp672
S'Kanaal'
p673
aNatp674
bag1
(g2
(I0
tp675
g4
tp676
Rp677
(I1
(I2
tp678
g11
I00
(lp679
S'Eisingers'
p680
aNatp681
bag1
(g2
(I0
tp682
g4
tp683
Rp684
(I1
(I2
tp685
g11
I00
(lp686
S'736'
p687
aNatp688
bag1
(g2
(I0
tp689
g4
tp690
Rp691
(I1
(I2
tp692
g11
I00
(lp693
S'Bartholomeus'
p694
aNatp695
bag1
(g2
(I0
tp696
g4
tp697
Rp698
(I1
(I2
tp699
g11
I00
(lp700
S'SacredProfane'
p701
aNatp702
bag1
(g2
(I0
tp703
g4
tp704
Rp705
(I1
(I2
tp706
g11
I00
(lp707
S'XXYY'
p708
aNatp709
bag1
(g2
(I0
tp710
g4
tp711
Rp712
(I1
(I2
tp713
g11
I00
(lp714
S'cruffin'
p715
aNatp716
bag1
(g2
(I0
tp717
g4
tp718
Rp719
(I1
(I2
tp720
g11
I00
(lp721
S'MrSaipov'
p722
aNatp723
bag1
(g2
(I0
tp724
g4
tp725
Rp726
(I1
(I2
tp727
g11
I00
(lp728
S'reportag'
p729
aNatp730
bag1
(g2
(I0
tp731
g4
tp732
Rp733
(I1
(I2
tp734
g11
I00
(lp735
S'Elske'
p736
aNatp737
bag1
(g2
(I0
tp738
g4
tp739
Rp740
(I1
(I2
tp741
g11
I00
(lp742
S'Bermane'
p743
aNatp744
bag1
(g2
(I0
tp745
g4
tp746
Rp747
(I1
(I2
tp748
g11
I00
(lp749
S'Yews'
p750
aNatp751
bag1
(g2
(I0
tp752
g4
tp753
Rp754
(I1
(I2
tp755
g11
I00
(lp756
S'lacc'
p757
aNatp758
bag1
(g2
(I0
tp759
g4
tp760
Rp761
(I1
(I2
tp762
g11
I00
(lp763
S'530i'
p764
aNatp765
bag1
(g2
(I0
tp766
g4
tp767
Rp768
(I1
(I2
tp769
g11
I00
(lp770
S'Milanos'
p771
aNatp772
bag1
(g2
(I0
tp773
g4
tp774
Rp775
(I1
(I2
tp776
g11
I00
(lp777
S'Graftons'
p778
aNatp779
bag1
(g2
(I0
tp780
g4
tp781
Rp782
(I1
(I2
tp783
g11
I00
(lp784
S'118-room'
p785
aNatp786
bag1
(g2
(I0
tp787
g4
tp788
Rp789
(I1
(I2
tp790
g11
I00
(lp791
S'Pukchang'
p792
aNatp793
bag1
(g2
(I0
tp794
g4
tp795
Rp796
(I1
(I2
tp797
g11
I00
(lp798
S'papaci'
p799
aNatp800
bag1
(g2
(I0
tp801
g4
tp802
Rp803
(I1
(I2
tp804
g11
I00
(lp805
S'350000'
p806
aNatp807
bag1
(g2
(I0
tp808
g4
tp809
Rp810
(I1
(I2
tp811
g11
I00
(lp812
S'superannu'
p813
aNatp814
bag1
(g2
(I0
tp815
g4
tp816
Rp817
(I1
(I2
tp818
g11
I00
(lp819
S'Tenderizer'
p820
aNatp821
bag1
(g2
(I0
tp822
g4
tp823
Rp824
(I1
(I2
tp825
g11
I00
(lp826
S'Fondakowski'
p827
aNatp828
bag1
(g2
(I0
tp829
g4
tp830
Rp831
(I1
(I2
tp832
g11
I00
(lp833
S'infal'
p834
aNatp835
bag1
(g2
(I0
tp836
g4
tp837
Rp838
(I1
(I2
tp839
g11
I00
(lp840
S'Kigawa'
p841
aNatp842
bag1
(g2
(I0
tp843
g4
tp844
Rp845
(I1
(I2
tp846
g11
I00
(lp847
S'unrol'
p848
aNatp849
bag1
(g2
(I0
tp850
g4
tp851
Rp852
(I1
(I2
tp853
g11
I00
(lp854
S'Ioniq'
p855
aNatp856
bag1
(g2
(I0
tp857
g4
tp858
Rp859
(I1
(I2
tp860
g11
I00
(lp861
S'chiropract'
p862
aNatp863
bag1
(g2
(I0
tp864
g4
tp865
Rp866
(I1
(I2
tp867
g11
I00
(lp868
S'complejidad'
p869
aNatp870
bag1
(g2
(I0
tp871
g4
tp872
Rp873
(I1
(I2
tp874
g11
I00
(lp875
S'Twerking'
p876
aNatp877
bag1
(g2
(I0
tp878
g4
tp879
Rp880
(I1
(I2
tp881
g11
I00
(lp882
S'Meisterstuck'
p883
aNatp884
bag1
(g2
(I0
tp885
g4
tp886
Rp887
(I1
(I2
tp888
g11
I00
(lp889
S'septiembr'
p890
aNatp891
bag1
(g2
(I0
tp892
g4
tp893
Rp894
(I1
(I2
tp895
g11
I00
(lp896
S'Isango'
p897
aNatp898
bag1
(g2
(I0
tp899
g4
tp900
Rp901
(I1
(I2
tp902
g11
I00
(lp903
S'frankli'
p904
aNatp905
bag1
(g2
(I0
tp906
g4
tp907
Rp908
(I1
(I2
tp909
g11
I00
(lp910
S'petul'
p911
aNatp912
bag1
(g2
(I0
tp913
g4
tp914
Rp915
(I1
(I2
tp916
g11
I00
(lp917
S'WNBCs'
p918
aNatp919
bag1
(g2
(I0
tp920
g4
tp921
Rp922
(I1
(I2
tp923
g11
I00
(lp924
S'inviabl'
p925
aNatp926
bag1
(g2
(I0
tp927
g4
tp928
Rp929
(I1
(I2
tp930
g11
I00
(lp931
S'111217'
p932
aNatp933
bag1
(g2
(I0
tp934
g4
tp935
Rp936
(I1
(I2
tp937
g11
I00
(lp938
S'Dubochet'
p939
aNatp940
bag1
(g2
(I0
tp941
g4
tp942
Rp943
(I1
(I2
tp944
g11
I00
(lp945
S'myRA'
p946
aNatp947
bag1
(g2
(I0
tp948
g4
tp949
Rp950
(I1
(I2
tp951
g11
I00
(lp952
S'Swanns'
p953
aNatp954
bag1
(g2
(I0
tp955
g4
tp956
Rp957
(I1
(I2
tp958
g11
I00
(lp959
S'volit'
p960
aNatp961
bag1
(g2
(I0
tp962
g4
tp963
Rp964
(I1
(I2
tp965
g11
I00
(lp966
S'CasaPound'
p967
aNatp968
bag1
(g2
(I0
tp969
g4
tp970
Rp971
(I1
(I2
tp972
g11
I00
(lp973
S'Bangkoks'
p974
aNatp975
bag1
(g2
(I0
tp976
g4
tp977
Rp978
(I1
(I2
tp979
g11
I00
(lp980
S'notepap'
p981
aNatp982
bag1
(g2
(I0
tp983
g4
tp984
Rp985
(I1
(I2
tp986
g11
I00
(lp987
S'GBU-43/B'
p988
aNatp989
bag1
(g2
(I0
tp990
g4
tp991
Rp992
(I1
(I2
tp993
g11
I00
(lp994
S'Avait'
p995
aNatp996
bag1
(g2
(I0
tp997
g4
tp998
Rp999
(I1
(I2
tp1000
g11
I00
(lp1001
S'Ssam'
p1002
aNatp1003
bag1
(g2
(I0
tp1004
g4
tp1005
Rp1006
(I1
(I2
tp1007
g11
I00
(lp1008
S'Newsha'
p1009
aNatp1010
bag1
(g2
(I0
tp1011
g4
tp1012
Rp1013
(I1
(I2
tp1014
g11
I00
(lp1015
S'30-10'
p1016
aNatp1017
bag1
(g2
(I0
tp1018
g4
tp1019
Rp1020
(I1
(I2
tp1021
g11
I00
(lp1022
S'dayflow'
p1023
aNatp1024
bag1
(g2
(I0
tp1025
g4
tp1026
Rp1027
(I1
(I2
tp1028
g11
I00
(lp1029
S'Berras'
p1030
aNatp1031
bag1
(g2
(I0
tp1032
g4
tp1033
Rp1034
(I1
(I2
tp1035
g11
I00
(lp1036
S'rosari'
p1037
aNatp1038
bag1
(g2
(I0
tp1039
g4
tp1040
Rp1041
(I1
(I2
tp1042
g11
I00
(lp1043
S'semipreci'
p1044
aNatp1045
bag1
(g2
(I0
tp1046
g4
tp1047
Rp1048
(I1
(I2
tp1049
g11
I00
(lp1050
S'Hyperglobalization'
p1051
aNatp1052
bag1
(g2
(I0
tp1053
g4
tp1054
Rp1055
(I1
(I2
tp1056
g11
I00
(lp1057
S'WhiteHousegov'
p1058
aNatp1059
bag1
(g2
(I0
tp1060
g4
tp1061
Rp1062
(I1
(I2
tp1063
g11
I00
(lp1064
S'insemna'
p1065
aNatp1066
bag1
(g2
(I0
tp1067
g4
tp1068
Rp1069
(I1
(I2
tp1070
g11
I00
(lp1071
S'lambassad'
p1072
aNatp1073
bag1
(g2
(I0
tp1074
g4
tp1075
Rp1076
(I1
(I2
tp1077
g11
I00
(lp1078
S'Feastive'
p1079
aNatp1080
bag1
(g2
(I0
tp1081
g4
tp1082
Rp1083
(I1
(I2
tp1084
g11
I00
(lp1085
S'GT40'
p1086
aNatp1087
bag1
(g2
(I0
tp1088
g4
tp1089
Rp1090
(I1
(I2
tp1091
g11
I00
(lp1092
S'innkeep'
p1093
aNatp1094
bag1
(g2
(I0
tp1095
g4
tp1096
Rp1097
(I1
(I2
tp1098
g11
I00
(lp1099
S'Sebestyens'
p1100
aNatp1101
bag1
(g2
(I0
tp1102
g4
tp1103
Rp1104
(I1
(I2
tp1105
g11
I00
(lp1106
S'rivalr'
p1107
aNatp1108
bag1
(g2
(I0
tp1109
g4
tp1110
Rp1111
(I1
(I2
tp1112
g11
I00
(lp1113
S'11-4-1'
p1114
aNatp1115
bag1
(g2
(I0
tp1116
g4
tp1117
Rp1118
(I1
(I2
tp1119
g11
I00
(lp1120
S'conservatori'
p1121
aNatp1122
bag1
(g2
(I0
tp1123
g4
tp1124
Rp1125
(I1
(I2
tp1126
g11
I00
(lp1127
S'porpois'
p1128
aNatp1129
bag1
(g2
(I0
tp1130
g4
tp1131
Rp1132
(I1
(I2
tp1133
g11
I00
(lp1134
S'propan'
p1135
aNatp1136
bag1
(g2
(I0
tp1137
g4
tp1138
Rp1139
(I1
(I2
tp1140
g11
I00
(lp1141
S'Appboy'
p1142
aNatp1143
bag1
(g2
(I0
tp1144
g4
tp1145
Rp1146
(I1
(I2
tp1147
g11
I00
(lp1148
S'subsect'
p1149
aNatp1150
bag1
(g2
(I0
tp1151
g4
tp1152
Rp1153
(I1
(I2
tp1154
g11
I00
(lp1155
S'Kondrackis'
p1156
aNatp1157
bag1
(g2
(I0
tp1158
g4
tp1159
Rp1160
(I1
(I2
tp1161
g11
I00
(lp1162
S'sourcesand'
p1163
aNatp1164
bag1
(g2
(I0
tp1165
g4
tp1166
Rp1167
(I1
(I2
tp1168
g11
I00
(lp1169
S'2-ranked'
p1170
aNatp1171
bag1
(g2
(I0
tp1172
g4
tp1173
Rp1174
(I1
(I2
tp1175
g11
I00
(lp1176
S'benzen'
p1177
aNatp1178
bag1
(g2
(I0
tp1179
g4
tp1180
Rp1181
(I1
(I2
tp1182
g11
I00
(lp1183
S'schoolteach'
p1184
aNatp1185
bag1
(g2
(I0
tp1186
g4
tp1187
Rp1188
(I1
(I2
tp1189
g11
I00
(lp1190
S'241st'
p1191
aNatp1192
bag1
(g2
(I0
tp1193
g4
tp1194
Rp1195
(I1
(I2
tp1196
g11
I00
(lp1197
S'Nesdale'
p1198
aNatp1199
bag1
(g2
(I0
tp1200
g4
tp1201
Rp1202
(I1
(I2
tp1203
g11
I00
(lp1204
S'Histoires'
p1205
aNatp1206
bag1
(g2
(I0
tp1207
g4
tp1208
Rp1209
(I1
(I2
tp1210
g11
I00
(lp1211
S'Lastarria'
p1212
aNatp1213
bag1
(g2
(I0
tp1214
g4
tp1215
Rp1216
(I1
(I2
tp1217
g11
I00
(lp1218
S'robocal'
p1219
aNatp1220
bag1
(g2
(I0
tp1221
g4
tp1222
Rp1223
(I1
(I2
tp1224
g11
I00
(lp1225
S'Terrify'
p1226
aNatp1227
bag1
(g2
(I0
tp1228
g4
tp1229
Rp1230
(I1
(I2
tp1231
g11
I00
(lp1232
S'Backpagecom'
p1233
aNatp1234
bag1
(g2
(I0
tp1235
g4
tp1236
Rp1237
(I1
(I2
tp1238
g11
I00
(lp1239
S'7917'
p1240
aNatp1241
bag1
(g2
(I0
tp1242
g4
tp1243
Rp1244
(I1
(I2
tp1245
g11
I00
(lp1246
S'Demode'
p1247
aNatp1248
bag1
(g2
(I0
tp1249
g4
tp1250
Rp1251
(I1
(I2
tp1252
g11
I00
(lp1253
S'tranc'
p1254
aNatp1255
bag1
(g2
(I0
tp1256
g4
tp1257
Rp1258
(I1
(I2
tp1259
g11
I00
(lp1260
S'Mows'
p1261
aNatp1262
bag1
(g2
(I0
tp1263
g4
tp1264
Rp1265
(I1
(I2
tp1266
g11
I00
(lp1267
S'Ferrantes'
p1268
aNatp1269
bag1
(g2
(I0
tp1270
g4
tp1271
Rp1272
(I1
(I2
tp1273
g11
I00
(lp1274
S'1,000-mile'
p1275
aNatp1276
bag1
(g2
(I0
tp1277
g4
tp1278
Rp1279
(I1
(I2
tp1280
g11
I00
(lp1281
S'muckrak'
p1282
aNatp1283
bag1
(g2
(I0
tp1284
g4
tp1285
Rp1286
(I1
(I2
tp1287
g11
I00
(lp1288
S'uneconom'
p1289
aNatp1290
bag1
(g2
(I0
tp1291
g4
tp1292
Rp1293
(I1
(I2
tp1294
g11
I00
(lp1295
S'Shortzs'
p1296
aNatp1297
bag1
(g2
(I0
tp1298
g4
tp1299
Rp1300
(I1
(I2
tp1301
g11
I00
(lp1302
S'Delgrange'
p1303
aNatp1304
bag1
(g2
(I0
tp1305
g4
tp1306
Rp1307
(I1
(I2
tp1308
g11
I00
(lp1309
S'225000'
p1310
aNatp1311
bag1
(g2
(I0
tp1312
g4
tp1313
Rp1314
(I1
(I2
tp1315
g11
I00
(lp1316
S'Hallstatt'
p1317
aNatp1318
bag1
(g2
(I0
tp1319
g4
tp1320
Rp1321
(I1
(I2
tp1322
g11
I00
(lp1323
S'antihistamin'
p1324
aNatp1325
bag1
(g2
(I0
tp1326
g4
tp1327
Rp1328
(I1
(I2
tp1329
g11
I00
(lp1330
S'toothi'
p1331
aNatp1332
bag1
(g2
(I0
tp1333
g4
tp1334
Rp1335
(I1
(I2
tp1336
g11
I00
(lp1337
S'autorit'
p1338
aNatp1339
bag1
(g2
(I0
tp1340
g4
tp1341
Rp1342
(I1
(I2
tp1343
g11
I00
(lp1344
S'Anomalie'
p1345
aNatp1346
bag1
(g2
(I0
tp1347
g4
tp1348
Rp1349
(I1
(I2
tp1350
g11
I00
(lp1351
S'Decertifying'
p1352
aNatp1353
bag1
(g2
(I0
tp1354
g4
tp1355
Rp1356
(I1
(I2
tp1357
g11
I00
(lp1358
S'Seatless'
p1359
aNatp1360
bag1
(g2
(I0
tp1361
g4
tp1362
Rp1363
(I1
(I2
tp1364
g11
I00
(lp1365
S'25-second'
p1366
aNatp1367
bag1
(g2
(I0
tp1368
g4
tp1369
Rp1370
(I1
(I2
tp1371
g11
I00
(lp1372
S'Covetable'
p1373
aNatp1374
bag1
(g2
(I0
tp1375
g4
tp1376
Rp1377
(I1
(I2
tp1378
g11
I00
(lp1379
S'Wrousis'
p1380
aNatp1381
bag1
(g2
(I0
tp1382
g4
tp1383
Rp1384
(I1
(I2
tp1385
g11
I00
(lp1386
S'dystrophi'
p1387
aNatp1388
bag1
(g2
(I0
tp1389
g4
tp1390
Rp1391
(I1
(I2
tp1392
g11
I00
(lp1393
S'Ahimi'
p1394
aNatp1395
bag1
(g2
(I0
tp1396
g4
tp1397
Rp1398
(I1
(I2
tp1399
g11
I00
(lp1400
S'Juchitan'
p1401
aNatp1402
bag1
(g2
(I0
tp1403
g4
tp1404
Rp1405
(I1
(I2
tp1406
g11
I00
(lp1407
S'Rebuses'
p1408
aNatp1409
bag1
(g2
(I0
tp1410
g4
tp1411
Rp1412
(I1
(I2
tp1413
g11
I00
(lp1414
S'fondu'
p1415
aNatp1416
bag1
(g2
(I0
tp1417
g4
tp1418
Rp1419
(I1
(I2
tp1420
g11
I00
(lp1421
S'pouss'
p1422
aNatp1423
bag1
(g2
(I0
tp1424
g4
tp1425
Rp1426
(I1
(I2
tp1427
g11
I00
(lp1428
S'Astellon'
p1429
aNatp1430
bag1
(g2
(I0
tp1431
g4
tp1432
Rp1433
(I1
(I2
tp1434
g11
I00
(lp1435
S'dietet'
p1436
aNatp1437
bag1
(g2
(I0
tp1438
g4
tp1439
Rp1440
(I1
(I2
tp1441
g11
I00
(lp1442
S'Gorbachevs'
p1443
aNatp1444
bag1
(g2
(I0
tp1445
g4
tp1446
Rp1447
(I1
(I2
tp1448
g11
I00
(lp1449
S'pintxo'
p1450
aNatp1451
bag1
(g2
(I0
tp1452
g4
tp1453
Rp1454
(I1
(I2
tp1455
g11
I00
(lp1456
S'anodyn'
p1457
aNatp1458
bag1
(g2
(I0
tp1459
g4
tp1460
Rp1461
(I1
(I2
tp1462
g11
I00
(lp1463
S'Coovers'
p1464
aNatp1465
bag1
(g2
(I0
tp1466
g4
tp1467
Rp1468
(I1
(I2
tp1469
g11
I00
(lp1470
S'girlscap'
p1471
aNatp1472
bag1
(g2
(I0
tp1473
g4
tp1474
Rp1475
(I1
(I2
tp1476
g11
I00
(lp1477
S'Sinocentric'
p1478
aNatp1479
bag1
(g2
(I0
tp1480
g4
tp1481
Rp1482
(I1
(I2
tp1483
g11
I00
(lp1484
S'Liqun'
p1485
aNatp1486
bag1
(g2
(I0
tp1487
g4
tp1488
Rp1489
(I1
(I2
tp1490
g11
I00
(lp1491
S'Iagos'
p1492
aNatp1493
bag1
(g2
(I0
tp1494
g4
tp1495
Rp1496
(I1
(I2
tp1497
g11
I00
(lp1498
S'annihil'
p1499
aNatp1500
bag1
(g2
(I0
tp1501
g4
tp1502
Rp1503
(I1
(I2
tp1504
g11
I00
(lp1505
S'Consonants'
p1506
aNatp1507
bag1
(g2
(I0
tp1508
g4
tp1509
Rp1510
(I1
(I2
tp1511
g11
I00
(lp1512
S'2003-4'
p1513
aNatp1514
bag1
(g2
(I0
tp1515
g4
tp1516
Rp1517
(I1
(I2
tp1518
g11
I00
(lp1519
S'eggi'
p1520
aNatp1521
bag1
(g2
(I0
tp1522
g4
tp1523
Rp1524
(I1
(I2
tp1525
g11
I00
(lp1526
S'autofict'
p1527
aNatp1528
bag1
(g2
(I0
tp1529
g4
tp1530
Rp1531
(I1
(I2
tp1532
g11
I00
(lp1533
S'grandios'
p1534
aNatp1535
bag1
(g2
(I0
tp1536
g4
tp1537
Rp1538
(I1
(I2
tp1539
g11
I00
(lp1540
S'speculateur'
p1541
aNatp1542
bag1
(g2
(I0
tp1543
g4
tp1544
Rp1545
(I1
(I2
tp1546
g11
I00
(lp1547
S'Chazelles'
p1548
aNatp1549
bag1
(g2
(I0
tp1550
g4
tp1551
Rp1552
(I1
(I2
tp1553
g11
I00
(lp1554
S'Clemsons'
p1555
aNatp1556
bag1
(g2
(I0
tp1557
g4
tp1558
Rp1559
(I1
(I2
tp1560
g11
I00
(lp1561
S'Kaimeh'
p1562
aNatp1563
bag1
(g2
(I0
tp1564
g4
tp1565
Rp1566
(I1
(I2
tp1567
g11
I00
(lp1568
S'Rares'
p1569
aNatp1570
bag1
(g2
(I0
tp1571
g4
tp1572
Rp1573
(I1
(I2
tp1574
g11
I00
(lp1575
S'Pistoias'
p1576
aNatp1577
bag1
(g2
(I0
tp1578
g4
tp1579
Rp1580
(I1
(I2
tp1581
g11
I00
(lp1582
S'unfeel'
p1583
aNatp1584
bag1
(g2
(I0
tp1585
g4
tp1586
Rp1587
(I1
(I2
tp1588
g11
I00
(lp1589
S'Thorps'
p1590
aNatp1591
bag1
(g2
(I0
tp1592
g4
tp1593
Rp1594
(I1
(I2
tp1595
g11
I00
(lp1596
S'Cusks'
p1597
aNatp1598
bag1
(g2
(I0
tp1599
g4
tp1600
Rp1601
(I1
(I2
tp1602
g11
I00
(lp1603
S'7700'
p1604
aNatp1605
bag1
(g2
(I0
tp1606
g4
tp1607
Rp1608
(I1
(I2
tp1609
g11
I00
(lp1610
S'Kengeters'
p1611
aNatp1612
bag1
(g2
(I0
tp1613
g4
tp1614
Rp1615
(I1
(I2
tp1616
g11
I00
(lp1617
S'transgen'
p1618
aNatp1619
bag1
(g2
(I0
tp1620
g4
tp1621
Rp1622
(I1
(I2
tp1623
g11
I00
(lp1624
S'LoftOpera'
p1625
aNatp1626
bag1
(g2
(I0
tp1627
g4
tp1628
Rp1629
(I1
(I2
tp1630
g11
I00
(lp1631
S'Majeure'
p1632
aNatp1633
bag1
(g2
(I0
tp1634
g4
tp1635
Rp1636
(I1
(I2
tp1637
g11
I00
(lp1638
S'slacklin'
p1639
aNatp1640
bag1
(g2
(I0
tp1641
g4
tp1642
Rp1643
(I1
(I2
tp1644
g11
I00
(lp1645
S'malform'
p1646
aNatp1647
bag1
(g2
(I0
tp1648
g4
tp1649
Rp1650
(I1
(I2
tp1651
g11
I00
(lp1652
S'KC-130'
p1653
aNatp1654
bag1
(g2
(I0
tp1655
g4
tp1656
Rp1657
(I1
(I2
tp1658
g11
I00
(lp1659
S'Guidaras'
p1660
aNatp1661
bag1
(g2
(I0
tp1662
g4
tp1663
Rp1664
(I1
(I2
tp1665
g11
I00
(lp1666
S'loftili'
p1667
aNatp1668
bag1
(g2
(I0
tp1669
g4
tp1670
Rp1671
(I1
(I2
tp1672
g11
I00
(lp1673
S'Lukass'
p1674
aNatp1675
bag1
(g2
(I0
tp1676
g4
tp1677
Rp1678
(I1
(I2
tp1679
g11
I00
(lp1680
S'majorli'
p1681
aNatp1682
bag1
(g2
(I0
tp1683
g4
tp1684
Rp1685
(I1
(I2
tp1686
g11
I00
(lp1687
S'Shifeng'
p1688
aNatp1689
bag1
(g2
(I0
tp1690
g4
tp1691
Rp1692
(I1
(I2
tp1693
g11
I00
(lp1694
S'Bornholmer'
p1695
aNatp1696
bag1
(g2
(I0
tp1697
g4
tp1698
Rp1699
(I1
(I2
tp1700
g11
I00
(lp1701
S'soggi'
p1702
aNatp1703
bag1
(g2
(I0
tp1704
g4
tp1705
Rp1706
(I1
(I2
tp1707
g11
I00
(lp1708
S'7.3-magnitude'
p1709
aNatp1710
bag1
(g2
(I0
tp1711
g4
tp1712
Rp1713
(I1
(I2
tp1714
g11
I00
(lp1715
S'Bluebeards'
p1716
aNatp1717
bag1
(g2
(I0
tp1718
g4
tp1719
Rp1720
(I1
(I2
tp1721
g11
I00
(lp1722
S'Crimps'
p1723
aNatp1724
bag1
(g2
(I0
tp1725
g4
tp1726
Rp1727
(I1
(I2
tp1728
g11
I00
(lp1729
S'Mulaney'
p1730
aNatp1731
bag1
(g2
(I0
tp1732
g4
tp1733
Rp1734
(I1
(I2
tp1735
g11
I00
(lp1736
S'fronterizo'
p1737
aNatp1738
bag1
(g2
(I0
tp1739
g4
tp1740
Rp1741
(I1
(I2
tp1742
g11
I00
(lp1743
S'Kalpakjians'
p1744
aNatp1745
bag1
(g2
(I0
tp1746
g4
tp1747
Rp1748
(I1
(I2
tp1749
g11
I00
(lp1750
S'Tomboys'
p1751
aNatp1752
bag1
(g2
(I0
tp1753
g4
tp1754
Rp1755
(I1
(I2
tp1756
g11
I00
(lp1757
S'12-10'
p1758
aNatp1759
bag1
(g2
(I0
tp1760
g4
tp1761
Rp1762
(I1
(I2
tp1763
g11
I00
(lp1764
S'Anies'
p1765
aNatp1766
bag1
(g2
(I0
tp1767
g4
tp1768
Rp1769
(I1
(I2
tp1770
g11
I00
(lp1771
S'I-45'
p1772
aNatp1773
bag1
(g2
(I0
tp1774
g4
tp1775
Rp1776
(I1
(I2
tp1777
g11
I00
(lp1778
S'Morisseaus'
p1779
aNatp1780
bag1
(g2
(I0
tp1781
g4
tp1782
Rp1783
(I1
(I2
tp1784
g11
I00
(lp1785
S'421-a'
p1786
aNatp1787
bag1
(g2
(I0
tp1788
g4
tp1789
Rp1790
(I1
(I2
tp1791
g11
I00
(lp1792
S'fronteriza'
p1793
aNatp1794
bag1
(g2
(I0
tp1795
g4
tp1796
Rp1797
(I1
(I2
tp1798
g11
I00
(lp1799
S'unsentiment'
p1800
aNatp1801
bag1
(g2
(I0
tp1802
g4
tp1803
Rp1804
(I1
(I2
tp1805
g11
I00
(lp1806
S'disreput'
p1807
aNatp1808
bag1
(g2
(I0
tp1809
g4
tp1810
Rp1811
(I1
(I2
tp1812
g11
I00
(lp1813
S'Birna'
p1814
aNatp1815
bag1
(g2
(I0
tp1816
g4
tp1817
Rp1818
(I1
(I2
tp1819
g11
I00
(lp1820
S'Lymaris'
p1821
aNatp1822
bag1
(g2
(I0
tp1823
g4
tp1824
Rp1825
(I1
(I2
tp1826
g11
I00
(lp1827
S'supermass'
p1828
aNatp1829
bag1
(g2
(I0
tp1830
g4
tp1831
Rp1832
(I1
(I2
tp1833
g11
I00
(lp1834
S'Shaoyo'
p1835
aNatp1836
bag1
(g2
(I0
tp1837
g4
tp1838
Rp1839
(I1
(I2
tp1840
g11
I00
(lp1841
S'mid-2000'
p1842
aNatp1843
bag1
(g2
(I0
tp1844
g4
tp1845
Rp1846
(I1
(I2
tp1847
g11
I00
(lp1848
S'silahl'
p1849
aNatp1850
bag1
(g2
(I0
tp1851
g4
tp1852
Rp1853
(I1
(I2
tp1854
g11
I00
(lp1855
S'recueillir'
p1856
aNatp1857
bag1
(g2
(I0
tp1858
g4
tp1859
Rp1860
(I1
(I2
tp1861
g11
I00
(lp1862
S'under-17'
p1863
aNatp1864
bag1
(g2
(I0
tp1865
g4
tp1866
Rp1867
(I1
(I2
tp1868
g11
I00
(lp1869
S'blith'
p1870
aNatp1871
bag1
(g2
(I0
tp1872
g4
tp1873
Rp1874
(I1
(I2
tp1875
g11
I00
(lp1876
S'Slovakias'
p1877
aNatp1878
bag1
(g2
(I0
tp1879
g4
tp1880
Rp1881
(I1
(I2
tp1882
g11
I00
(lp1883
S'Hooven,12,'
p1884
aNatp1885
bag1
(g2
(I0
tp1886
g4
tp1887
Rp1888
(I1
(I2
tp1889
g11
I00
(lp1890
S'941'
p1891
aNatp1892
bag1
(g2
(I0
tp1893
g4
tp1894
Rp1895
(I1
(I2
tp1896
g11
I00
(lp1897
S'Miraldas'
p1898
aNatp1899
bag1
(g2
(I0
tp1900
g4
tp1901
Rp1902
(I1
(I2
tp1903
g11
I00
(lp1904
S'musicolog'
p1905
aNatp1906
bag1
(g2
(I0
tp1907
g4
tp1908
Rp1909
(I1
(I2
tp1910
g11
I00
(lp1911
S'35-page'
p1912
aNatp1913
bag1
(g2
(I0
tp1914
g4
tp1915
Rp1916
(I1
(I2
tp1917
g11
I00
(lp1918
S'prech'
p1919
aNatp1920
bag1
(g2
(I0
tp1921
g4
tp1922
Rp1923
(I1
(I2
tp1924
g11
I00
(lp1925
S'whiski'
p1926
aNatp1927
bag1
(g2
(I0
tp1928
g4
tp1929
Rp1930
(I1
(I2
tp1931
g11
I00
(lp1932
S'20-6'
p1933
aNatp1934
bag1
(g2
(I0
tp1935
g4
tp1936
Rp1937
(I1
(I2
tp1938
g11
I00
(lp1939
S'49000'
p1940
aNatp1941
bag1
(g2
(I0
tp1942
g4
tp1943
Rp1944
(I1
(I2
tp1945
g11
I00
(lp1946
S'945'
p1947
aNatp1948
bag1
(g2
(I0
tp1949
g4
tp1950
Rp1951
(I1
(I2
tp1952
g11
I00
(lp1953
S'Hulus'
p1954
aNatp1955
bag1
(g2
(I0
tp1956
g4
tp1957
Rp1958
(I1
(I2
tp1959
g11
I00
(lp1960
S'946'
p1961
aNatp1962
bag1
(g2
(I0
tp1963
g4
tp1964
Rp1965
(I1
(I2
tp1966
g11
I00
(lp1967
S'Quesne'
p1968
aNatp1969
bag1
(g2
(I0
tp1970
g4
tp1971
Rp1972
(I1
(I2
tp1973
g11
I00
(lp1974
S'snooz'
p1975
aNatp1976
bag1
(g2
(I0
tp1977
g4
tp1978
Rp1979
(I1
(I2
tp1980
g11
I00
(lp1981
S'Untuckit'
p1982
aNatp1983
bag1
(g2
(I0
tp1984
g4
tp1985
Rp1986
(I1
(I2
tp1987
g11
I00
(lp1988
S'Leesons'
p1989
aNatp1990
bag1
(g2
(I0
tp1991
g4
tp1992
Rp1993
(I1
(I2
tp1994
g11
I00
(lp1995
S'Warsaws'
p1996
aNatp1997
bag1
(g2
(I0
tp1998
g4
tp1999
Rp2000
(I1
(I2
tp2001
g11
I00
(lp2002
S'DeleteUber'
p2003
aNatp2004
bag1
(g2
(I0
tp2005
g4
tp2006
Rp2007
(I1
(I2
tp2008
g11
I00
(lp2009
S'cleverli'
p2010
aNatp2011
bag1
(g2
(I0
tp2012
g4
tp2013
Rp2014
(I1
(I2
tp2015
g11
I00
(lp2016
S'Odiele'
p2017
aNatp2018
bag1
(g2
(I0
tp2019
g4
tp2020
Rp2021
(I1
(I2
tp2022
g11
I00
(lp2023
S'methodolog'
p2024
aNatp2025
bag1
(g2
(I0
tp2026
g4
tp2027
Rp2028
(I1
(I2
tp2029
g11
I00
(lp2030
S'McCarters'
p2031
aNatp2032
bag1
(g2
(I0
tp2033
g4
tp2034
Rp2035
(I1
(I2
tp2036
g11
I00
(lp2037
S'Mattoss'
p2038
aNatp2039
bag1
(g2
(I0
tp2040
g4
tp2041
Rp2042
(I1
(I2
tp2043
g11
I00
(lp2044
S'Mailou'
p2045
aNatp2046
bag1
(g2
(I0
tp2047
g4
tp2048
Rp2049
(I1
(I2
tp2050
g11
I00
(lp2051
S'Bascianos'
p2052
aNatp2053
bag1
(g2
(I0
tp2054
g4
tp2055
Rp2056
(I1
(I2
tp2057
g11
I00
(lp2058
S'W.G.C.-Dell'
p2059
aNatp2060
bag1
(g2
(I0
tp2061
g4
tp2062
Rp2063
(I1
(I2
tp2064
g11
I00
(lp2065
S'zealotri'
p2066
aNatp2067
bag1
(g2
(I0
tp2068
g4
tp2069
Rp2070
(I1
(I2
tp2071
g11
I00
(lp2072
S'erkek'
p2073
aNatp2074
bag1
(g2
(I0
tp2075
g4
tp2076
Rp2077
(I1
(I2
tp2078
g11
I00
(lp2079
S'extraterrestri'
p2080
aNatp2081
bag1
(g2
(I0
tp2082
g4
tp2083
Rp2084
(I1
(I2
tp2085
g11
I00
(lp2086
S'78-49'
p2087
aNatp2088
bag1
(g2
(I0
tp2089
g4
tp2090
Rp2091
(I1
(I2
tp2092
g11
I00
(lp2093
S'Caveh'
p2094
aNatp2095
bag1
(g2
(I0
tp2096
g4
tp2097
Rp2098
(I1
(I2
tp2099
g11
I00
(lp2100
S'Trinidads'
p2101
aNatp2102
bag1
(g2
(I0
tp2103
g4
tp2104
Rp2105
(I1
(I2
tp2106
g11
I00
(lp2107
S'TFBoys'
p2108
aNatp2109
bag1
(g2
(I0
tp2110
g4
tp2111
Rp2112
(I1
(I2
tp2113
g11
I00
(lp2114
S'38-unit'
p2115
aNatp2116
bag1
(g2
(I0
tp2117
g4
tp2118
Rp2119
(I1
(I2
tp2120
g11
I00
(lp2121
S'Pacinos'
p2122
aNatp2123
bag1
(g2
(I0
tp2124
g4
tp2125
Rp2126
(I1
(I2
tp2127
g11
I00
(lp2128
S'Ichimuras'
p2129
aNatp2130
bag1
(g2
(I0
tp2131
g4
tp2132
Rp2133
(I1
(I2
tp2134
g11
I00
(lp2135
S'montag'
p2136
aNatp2137
bag1
(g2
(I0
tp2138
g4
tp2139
Rp2140
(I1
(I2
tp2141
g11
I00
(lp2142
S'urbanit'
p2143
aNatp2144
bag1
(g2
(I0
tp2145
g4
tp2146
Rp2147
(I1
(I2
tp2148
g11
I00
(lp2149
S'Fukadas'
p2150
aNatp2151
bag1
(g2
(I0
tp2152
g4
tp2153
Rp2154
(I1
(I2
tp2155
g11
I00
(lp2156
S'stupend'
p2157
aNatp2158
bag1
(g2
(I0
tp2159
g4
tp2160
Rp2161
(I1
(I2
tp2162
g11
I00
(lp2163
S'4200'
p2164
aNatp2165
bag1
(g2
(I0
tp2166
g4
tp2167
Rp2168
(I1
(I2
tp2169
g11
I00
(lp2170
S'glutathion'
p2171
aNatp2172
bag1
(g2
(I0
tp2173
g4
tp2174
Rp2175
(I1
(I2
tp2176
g11
I00
(lp2177
S'NorCalSoCal'
p2178
aNatp2179
bag1
(g2
(I0
tp2180
g4
tp2181
Rp2182
(I1
(I2
tp2183
g11
I00
(lp2184
S'125-103'
p2185
aNatp2186
bag1
(g2
(I0
tp2187
g4
tp2188
Rp2189
(I1
(I2
tp2190
g11
I00
(lp2191
S'seatmat'
p2192
aNatp2193
bag1
(g2
(I0
tp2194
g4
tp2195
Rp2196
(I1
(I2
tp2197
g11
I00
(lp2198
S'lyche'
p2199
aNatp2200
bag1
(g2
(I0
tp2201
g4
tp2202
Rp2203
(I1
(I2
tp2204
g11
I00
(lp2205
S'sweeti'
p2206
aNatp2207
bag1
(g2
(I0
tp2208
g4
tp2209
Rp2210
(I1
(I2
tp2211
g11
I00
(lp2212
S'Chihulys'
p2213
aNatp2214
bag1
(g2
(I0
tp2215
g4
tp2216
Rp2217
(I1
(I2
tp2218
g11
I00
(lp2219
S'potbelli'
p2220
aNatp2221
bag1
(g2
(I0
tp2222
g4
tp2223
Rp2224
(I1
(I2
tp2225
g11
I00
(lp2226
S'Bondss'
p2227
aNatp2228
bag1
(g2
(I0
tp2229
g4
tp2230
Rp2231
(I1
(I2
tp2232
g11
I00
(lp2233
S'Tabqa'
p2234
aNatp2235
bag1
(g2
(I0
tp2236
g4
tp2237
Rp2238
(I1
(I2
tp2239
g11
I00
(lp2240
S'embat'
p2241
aNatp2242
bag1
(g2
(I0
tp2243
g4
tp2244
Rp2245
(I1
(I2
tp2246
g11
I00
(lp2247
S'decolletag'
p2248
aNatp2249
bag1
(g2
(I0
tp2250
g4
tp2251
Rp2252
(I1
(I2
tp2253
g11
I00
(lp2254
S'calamit'
p2255
aNatp2256
bag1
(g2
(I0
tp2257
g4
tp2258
Rp2259
(I1
(I2
tp2260
g11
I00
(lp2261
S'proscript'
p2262
aNatp2263
bag1
(g2
(I0
tp2264
g4
tp2265
Rp2266
(I1
(I2
tp2267
g11
I00
(lp2268
S'cavali'
p2269
aNatp2270
bag1
(g2
(I0
tp2271
g4
tp2272
Rp2273
(I1
(I2
tp2274
g11
I00
(lp2275
S'misidentifi'
p2276
aNatp2277
bag1
(g2
(I0
tp2278
g4
tp2279
Rp2280
(I1
(I2
tp2281
g11
I00
(lp2282
S'AeroFarms'
p2283
aNatp2284
bag1
(g2
(I0
tp2285
g4
tp2286
Rp2287
(I1
(I2
tp2288
g11
I00
(lp2289
S'49-9'
p2290
aNatp2291
bag1
(g2
(I0
tp2292
g4
tp2293
Rp2294
(I1
(I2
tp2295
g11
I00
(lp2296
S'Lettermans'
p2297
aNatp2298
bag1
(g2
(I0
tp2299
g4
tp2300
Rp2301
(I1
(I2
tp2302
g11
I00
(lp2303
S'Vineria'
p2304
aNatp2305
bag1
(g2
(I0
tp2306
g4
tp2307
Rp2308
(I1
(I2
tp2309
g11
I00
(lp2310
S'schmegular'
p2311
aNatp2312
bag1
(g2
(I0
tp2313
g4
tp2314
Rp2315
(I1
(I2
tp2316
g11
I00
(lp2317
S'Nanfu'
p2318
aNatp2319
bag1
(g2
(I0
tp2320
g4
tp2321
Rp2322
(I1
(I2
tp2323
g11
I00
(lp2324
S'interplanetari'
p2325
aNatp2326
bag1
(g2
(I0
tp2327
g4
tp2328
Rp2329
(I1
(I2
tp2330
g11
I00
(lp2331
S'nondairi'
p2332
aNatp2333
bag1
(g2
(I0
tp2334
g4
tp2335
Rp2336
(I1
(I2
tp2337
g11
I00
(lp2338
S'Leboyer'
p2339
aNatp2340
bag1
(g2
(I0
tp2341
g4
tp2342
Rp2343
(I1
(I2
tp2344
g11
I00
(lp2345
S'representan'
p2346
aNatp2347
bag1
(g2
(I0
tp2348
g4
tp2349
Rp2350
(I1
(I2
tp2351
g11
I00
(lp2352
S'Mirgayas'
p2353
aNatp2354
bag1
(g2
(I0
tp2355
g4
tp2356
Rp2357
(I1
(I2
tp2358
g11
I00
(lp2359
S'binat'
p2360
aNatp2361
bag1
(g2
(I0
tp2362
g4
tp2363
Rp2364
(I1
(I2
tp2365
g11
I00
(lp2366
S'bacha'
p2367
aNatp2368
bag1
(g2
(I0
tp2369
g4
tp2370
Rp2371
(I1
(I2
tp2372
g11
I00
(lp2373
S'Cotiis'
p2374
aNatp2375
bag1
(g2
(I0
tp2376
g4
tp2377
Rp2378
(I1
(I2
tp2379
g11
I00
(lp2380
S'SonyATV'
p2381
aNatp2382
bag1
(g2
(I0
tp2383
g4
tp2384
Rp2385
(I1
(I2
tp2386
g11
I00
(lp2387
S'Laduree'
p2388
aNatp2389
bag1
(g2
(I0
tp2390
g4
tp2391
Rp2392
(I1
(I2
tp2393
g11
I00
(lp2394
S'pocketkn'
p2395
aNatp2396
bag1
(g2
(I0
tp2397
g4
tp2398
Rp2399
(I1
(I2
tp2400
g11
I00
(lp2401
S'Rickeys'
p2402
aNatp2403
bag1
(g2
(I0
tp2404
g4
tp2405
Rp2406
(I1
(I2
tp2407
g11
I00
(lp2408
S'Boutons'
p2409
aNatp2410
bag1
(g2
(I0
tp2411
g4
tp2412
Rp2413
(I1
(I2
tp2414
g11
I00
(lp2415
S'Norimitsu'
p2416
aNatp2417
bag1
(g2
(I0
tp2418
g4
tp2419
Rp2420
(I1
(I2
tp2421
g11
I00
(lp2422
S'274000'
p2423
aNatp2424
bag1
(g2
(I0
tp2425
g4
tp2426
Rp2427
(I1
(I2
tp2428
g11
I00
(lp2429
S'enumer'
p2430
aNatp2431
bag1
(g2
(I0
tp2432
g4
tp2433
Rp2434
(I1
(I2
tp2435
g11
I00
(lp2436
S'protestoculara'
p2437
aNatp2438
bag1
(g2
(I0
tp2439
g4
tp2440
Rp2441
(I1
(I2
tp2442
g11
I00
(lp2443
S'codebreak'
p2444
aNatp2445
bag1
(g2
(I0
tp2446
g4
tp2447
Rp2448
(I1
(I2
tp2449
g11
I00
(lp2450
S'Ghachar'
p2451
aNatp2452
bag1
(g2
(I0
tp2453
g4
tp2454
Rp2455
(I1
(I2
tp2456
g11
I00
(lp2457
S'Burzaco'
p2458
aNatp2459
bag1
(g2
(I0
tp2460
g4
tp2461
Rp2462
(I1
(I2
tp2463
g11
I00
(lp2464
S'Jalkh'
p2465
aNatp2466
bag1
(g2
(I0
tp2467
g4
tp2468
Rp2469
(I1
(I2
tp2470
g11
I00
(lp2471
S'3,000-foot'
p2472
aNatp2473
bag1
(g2
(I0
tp2474
g4
tp2475
Rp2476
(I1
(I2
tp2477
g11
I00
(lp2478
S'2695'
p2479
aNatp2480
bag1
(g2
(I0
tp2481
g4
tp2482
Rp2483
(I1
(I2
tp2484
g11
I00
(lp2485
S'mid-30'
p2486
aNatp2487
bag1
(g2
(I0
tp2488
g4
tp2489
Rp2490
(I1
(I2
tp2491
g11
I00
(lp2492
S'sanguinari'
p2493
aNatp2494
bag1
(g2
(I0
tp2495
g4
tp2496
Rp2497
(I1
(I2
tp2498
g11
I00
(lp2499
S'Casemiro'
p2500
aNatp2501
bag1
(g2
(I0
tp2502
g4
tp2503
Rp2504
(I1
(I2
tp2505
g11
I00
(lp2506
S'irasc'
p2507
aNatp2508
bag1
(g2
(I0
tp2509
g4
tp2510
Rp2511
(I1
(I2
tp2512
g11
I00
(lp2513
S'49th'
p2514
aNatp2515
bag1
(g2
(I0
tp2516
g4
tp2517
Rp2518
(I1
(I2
tp2519
g11
I00
(lp2520
S'meringu'
p2521
aNatp2522
bag1
(g2
(I0
tp2523
g4
tp2524
Rp2525
(I1
(I2
tp2526
g11
I00
(lp2527
S'Helsinkis'
p2528
aNatp2529
bag1
(g2
(I0
tp2530
g4
tp2531
Rp2532
(I1
(I2
tp2533
g11
I00
(lp2534
S'powerlift'
p2535
aNatp2536
bag1
(g2
(I0
tp2537
g4
tp2538
Rp2539
(I1
(I2
tp2540
g11
I00
(lp2541
S'17-nation'
p2542
aNatp2543
bag1
(g2
(I0
tp2544
g4
tp2545
Rp2546
(I1
(I2
tp2547
g11
I00
(lp2548
S'Ftouhi'
p2549
aNatp2550
bag1
(g2
(I0
tp2551
g4
tp2552
Rp2553
(I1
(I2
tp2554
g11
I00
(lp2555
S'Tharoors'
p2556
aNatp2557
bag1
(g2
(I0
tp2558
g4
tp2559
Rp2560
(I1
(I2
tp2561
g11
I00
(lp2562
S'rainmak'
p2563
aNatp2564
bag1
(g2
(I0
tp2565
g4
tp2566
Rp2567
(I1
(I2
tp2568
g11
I00
(lp2569
S'overcapac'
p2570
aNatp2571
bag1
(g2
(I0
tp2572
g4
tp2573
Rp2574
(I1
(I2
tp2575
g11
I00
(lp2576
S'Fivestorys'
p2577
aNatp2578
bag1
(g2
(I0
tp2579
g4
tp2580
Rp2581
(I1
(I2
tp2582
g11
I00
(lp2583
S',Sarah'
p2584
aNatp2585
bag1
(g2
(I0
tp2586
g4
tp2587
Rp2588
(I1
(I2
tp2589
g11
I00
(lp2590
S'Misplacing'
p2591
aNatp2592
bag1
(g2
(I0
tp2593
g4
tp2594
Rp2595
(I1
(I2
tp2596
g11
I00
(lp2597
S'downi'
p2598
aNatp2599
bag1
(g2
(I0
tp2600
g4
tp2601
Rp2602
(I1
(I2
tp2603
g11
I00
(lp2604
S'Mouratoglou'
p2605
aNatp2606
bag1
(g2
(I0
tp2607
g4
tp2608
Rp2609
(I1
(I2
tp2610
g11
I00
(lp2611
S'MasterPrint'
p2612
aNatp2613
bag1
(g2
(I0
tp2614
g4
tp2615
Rp2616
(I1
(I2
tp2617
g11
I00
(lp2618
S'Guignol'
p2619
aNatp2620
bag1
(g2
(I0
tp2621
g4
tp2622
Rp2623
(I1
(I2
tp2624
g11
I00
(lp2625
S'Blanchetts'
p2626
aNatp2627
bag1
(g2
(I0
tp2628
g4
tp2629
Rp2630
(I1
(I2
tp2631
g11
I00
(lp2632
S'Doorposts'
p2633
aNatp2634
bag1
(g2
(I0
tp2635
g4
tp2636
Rp2637
(I1
(I2
tp2638
g11
I00
(lp2639
S'Modiglianis'
p2640
aNatp2641
bag1
(g2
(I0
tp2642
g4
tp2643
Rp2644
(I1
(I2
tp2645
g11
I00
(lp2646
S'Farbs'
p2647
aNatp2648
bag1
(g2
(I0
tp2649
g4
tp2650
Rp2651
(I1
(I2
tp2652
g11
I00
(lp2653
S'multisensori'
p2654
aNatp2655
bag1
(g2
(I0
tp2656
g4
tp2657
Rp2658
(I1
(I2
tp2659
g11
I00
(lp2660
S'Ahok'
p2661
aNatp2662
bag1
(g2
(I0
tp2663
g4
tp2664
Rp2665
(I1
(I2
tp2666
g11
I00
(lp2667
S'accusatori'
p2668
aNatp2669
bag1
(g2
(I0
tp2670
g4
tp2671
Rp2672
(I1
(I2
tp2673
g11
I00
(lp2674
S'Taubess'
p2675
aNatp2676
bag1
(g2
(I0
tp2677
g4
tp2678
Rp2679
(I1
(I2
tp2680
g11
I00
(lp2681
S'Narcos'
p2682
aNatp2683
bag1
(g2
(I0
tp2684
g4
tp2685
Rp2686
(I1
(I2
tp2687
g11
I00
(lp2688
S'Reviss'
p2689
aNatp2690
bag1
(g2
(I0
tp2691
g4
tp2692
Rp2693
(I1
(I2
tp2694
g11
I00
(lp2695
S'Turins'
p2696
aNatp2697
bag1
(g2
(I0
tp2698
g4
tp2699
Rp2700
(I1
(I2
tp2701
g11
I00
(lp2702
S'Seancers'
p2703
aNatp2704
bag1
(g2
(I0
tp2705
g4
tp2706
Rp2707
(I1
(I2
tp2708
g11
I00
(lp2709
S'Tagimoucia'
p2710
aNatp2711
bag1
(g2
(I0
tp2712
g4
tp2713
Rp2714
(I1
(I2
tp2715
g11
I00
(lp2716
S'entrar'
p2717
aNatp2718
bag1
(g2
(I0
tp2719
g4
tp2720
Rp2721
(I1
(I2
tp2722
g11
I00
(lp2723
S'Cattlemens'
p2724
aNatp2725
bag1
(g2
(I0
tp2726
g4
tp2727
Rp2728
(I1
(I2
tp2729
g11
I00
(lp2730
S'clu'
p2731
aNatp2732
bag1
(g2
(I0
tp2733
g4
tp2734
Rp2735
(I1
(I2
tp2736
g11
I00
(lp2737
S'brokenheart'
p2738
aNatp2739
bag1
(g2
(I0
tp2740
g4
tp2741
Rp2742
(I1
(I2
tp2743
g11
I00
(lp2744
S'33-8'
p2745
aNatp2746
bag1
(g2
(I0
tp2747
g4
tp2748
Rp2749
(I1
(I2
tp2750
g11
I00
(lp2751
S'hyperliquid'
p2752
aNatp2753
bag1
(g2
(I0
tp2754
g4
tp2755
Rp2756
(I1
(I2
tp2757
g11
I00
(lp2758
S'Burruntil'
p2759
aNatp2760
bag1
(g2
(I0
tp2761
g4
tp2762
Rp2763
(I1
(I2
tp2764
g11
I00
(lp2765
S'1105'
p2766
aNatp2767
bag1
(g2
(I0
tp2768
g4
tp2769
Rp2770
(I1
(I2
tp2771
g11
I00
(lp2772
S'Cornaro'
p2773
aNatp2774
bag1
(g2
(I0
tp2775
g4
tp2776
Rp2777
(I1
(I2
tp2778
g11
I00
(lp2779
S'Hellmans'
p2780
aNatp2781
bag1
(g2
(I0
tp2782
g4
tp2783
Rp2784
(I1
(I2
tp2785
g11
I00
(lp2786
S'treasuri'
p2787
aNatp2788
bag1
(g2
(I0
tp2789
g4
tp2790
Rp2791
(I1
(I2
tp2792
g11
I00
(lp2793
S'StyleHaul'
p2794
aNatp2795
bag1
(g2
(I0
tp2796
g4
tp2797
Rp2798
(I1
(I2
tp2799
g11
I00
(lp2800
S'Rosensteins'
p2801
aNatp2802
bag1
(g2
(I0
tp2803
g4
tp2804
Rp2805
(I1
(I2
tp2806
g11
I00
(lp2807
S'Unselds'
p2808
aNatp2809
bag1
(g2
(I0
tp2810
g4
tp2811
Rp2812
(I1
(I2
tp2813
g11
I00
(lp2814
S'Oceanias'
p2815
aNatp2816
bag1
(g2
(I0
tp2817
g4
tp2818
Rp2819
(I1
(I2
tp2820
g11
I00
(lp2821
S'levelhead'
p2822
aNatp2823
bag1
(g2
(I0
tp2824
g4
tp2825
Rp2826
(I1
(I2
tp2827
g11
I00
(lp2828
S'99-76'
p2829
aNatp2830
bag1
(g2
(I0
tp2831
g4
tp2832
Rp2833
(I1
(I2
tp2834
g11
I00
(lp2835
S'Karams'
p2836
aNatp2837
bag1
(g2
(I0
tp2838
g4
tp2839
Rp2840
(I1
(I2
tp2841
g11
I00
(lp2842
S'Backstroms'
p2843
aNatp2844
bag1
(g2
(I0
tp2845
g4
tp2846
Rp2847
(I1
(I2
tp2848
g11
I00
(lp2849
S'Suisses'
p2850
aNatp2851
bag1
(g2
(I0
tp2852
g4
tp2853
Rp2854
(I1
(I2
tp2855
g11
I00
(lp2856
S'Kehlmanns'
p2857
aNatp2858
bag1
(g2
(I0
tp2859
g4
tp2860
Rp2861
(I1
(I2
tp2862
g11
I00
(lp2863
S'15-day'
p2864
aNatp2865
bag1
(g2
(I0
tp2866
g4
tp2867
Rp2868
(I1
(I2
tp2869
g11
I00
(lp2870
S'Bulajs'
p2871
aNatp2872
bag1
(g2
(I0
tp2873
g4
tp2874
Rp2875
(I1
(I2
tp2876
g11
I00
(lp2877
S'lowli'
p2878
aNatp2879
bag1
(g2
(I0
tp2880
g4
tp2881
Rp2882
(I1
(I2
tp2883
g11
I00
(lp2884
S'unpunish'
p2885
aNatp2886
bag1
(g2
(I0
tp2887
g4
tp2888
Rp2889
(I1
(I2
tp2890
g11
I00
(lp2891
S'168'
p2892
aNatp2893
bag1
(g2
(I0
tp2894
g4
tp2895
Rp2896
(I1
(I2
tp2897
g11
I00
(lp2898
S'Bertolt'
p2899
aNatp2900
bag1
(g2
(I0
tp2901
g4
tp2902
Rp2903
(I1
(I2
tp2904
g11
I00
(lp2905
S'162'
p2906
aNatp2907
bag1
(g2
(I0
tp2908
g4
tp2909
Rp2910
(I1
(I2
tp2911
g11
I00
(lp2912
S'Symphonique'
p2913
aNatp2914
bag1
(g2
(I0
tp2915
g4
tp2916
Rp2917
(I1
(I2
tp2918
g11
I00
(lp2919
S'Yingyong'
p2920
aNatp2921
bag1
(g2
(I0
tp2922
g4
tp2923
Rp2924
(I1
(I2
tp2925
g11
I00
(lp2926
S'Beaked'
p2927
aNatp2928
bag1
(g2
(I0
tp2929
g4
tp2930
Rp2931
(I1
(I2
tp2932
g11
I00
(lp2933
S'Generis'
p2934
aNatp2935
bag1
(g2
(I0
tp2936
g4
tp2937
Rp2938
(I1
(I2
tp2939
g11
I00
(lp2940
S'duckwalk'
p2941
aNatp2942
bag1
(g2
(I0
tp2943
g4
tp2944
Rp2945
(I1
(I2
tp2946
g11
I00
(lp2947
S'immobili'
p2948
aNatp2949
bag1
(g2
(I0
tp2950
g4
tp2951
Rp2952
(I1
(I2
tp2953
g11
I00
(lp2954
S'moviemak'
p2955
aNatp2956
bag1
(g2
(I0
tp2957
g4
tp2958
Rp2959
(I1
(I2
tp2960
g11
I00
(lp2961
S'104000'
p2962
aNatp2963
bag1
(g2
(I0
tp2964
g4
tp2965
Rp2966
(I1
(I2
tp2967
g11
I00
(lp2968
S'16-'
p2969
aNatp2970
bag1
(g2
(I0
tp2971
g4
tp2972
Rp2973
(I1
(I2
tp2974
g11
I00
(lp2975
S'Coachs'
p2976
aNatp2977
bag1
(g2
(I0
tp2978
g4
tp2979
Rp2980
(I1
(I2
tp2981
g11
I00
(lp2982
S'130-degree'
p2983
aNatp2984
bag1
(g2
(I0
tp2985
g4
tp2986
Rp2987
(I1
(I2
tp2988
g11
I00
(lp2989
S'20-'
p2990
aNatp2991
bag1
(g2
(I0
tp2992
g4
tp2993
Rp2994
(I1
(I2
tp2995
g11
I00
(lp2996
S'whizz'
p2997
aNatp2998
bag1
(g2
(I0
tp2999
g4
tp3000
Rp3001
(I1
(I2
tp3002
g11
I00
(lp3003
S'canni'
p3004
aNatp3005
bag1
(g2
(I0
tp3006
g4
tp3007
Rp3008
(I1
(I2
tp3009
g11
I00
(lp3010
S'Morahans'
p3011
aNatp3012
bag1
(g2
(I0
tp3013
g4
tp3014
Rp3015
(I1
(I2
tp3016
g11
I00
(lp3017
S'207'
p3018
aNatp3019
bag1
(g2
(I0
tp3020
g4
tp3021
Rp3022
(I1
(I2
tp3023
g11
I00
(lp3024
S'204'
p3025
aNatp3026
bag1
(g2
(I0
tp3027
g4
tp3028
Rp3029
(I1
(I2
tp3030
g11
I00
(lp3031
S'203'
p3032
aNatp3033
bag1
(g2
(I0
tp3034
g4
tp3035
Rp3036
(I1
(I2
tp3037
g11
I00
(lp3038
S'C-3PO'
p3039
aNatp3040
bag1
(g2
(I0
tp3041
g4
tp3042
Rp3043
(I1
(I2
tp3044
g11
I00
(lp3045
S'alimento'
p3046
aNatp3047
bag1
(g2
(I0
tp3048
g4
tp3049
Rp3050
(I1
(I2
tp3051
g11
I00
(lp3052
S'Bleuberet'
p3053
aNatp3054
bag1
(g2
(I0
tp3055
g4
tp3056
Rp3057
(I1
(I2
tp3058
g11
I00
(lp3059
S'Alimentari'
p3060
aNatp3061
bag1
(g2
(I0
tp3062
g4
tp3063
Rp3064
(I1
(I2
tp3065
g11
I00
(lp3066
S'Senderens'
p3067
aNatp3068
bag1
(g2
(I0
tp3069
g4
tp3070
Rp3071
(I1
(I2
tp3072
g11
I00
(lp3073
S'deglamor'
p3074
aNatp3075
bag1
(g2
(I0
tp3076
g4
tp3077
Rp3078
(I1
(I2
tp3079
g11
I00
(lp3080
S'indestruct'
p3081
aNatp3082
bag1
(g2
(I0
tp3083
g4
tp3084
Rp3085
(I1
(I2
tp3086
g11
I00
(lp3087
S'Campras'
p3088
aNatp3089
bag1
(g2
(I0
tp3090
g4
tp3091
Rp3092
(I1
(I2
tp3093
g11
I00
(lp3094
S'Segals'
p3095
aNatp3096
bag1
(g2
(I0
tp3097
g4
tp3098
Rp3099
(I1
(I2
tp3100
g11
I00
(lp3101
S'hydropon'
p3102
aNatp3103
bag1
(g2
(I0
tp3104
g4
tp3105
Rp3106
(I1
(I2
tp3107
g11
I00
(lp3108
S'61st'
p3109
aNatp3110
bag1
(g2
(I0
tp3111
g4
tp3112
Rp3113
(I1
(I2
tp3114
g11
I00
(lp3115
S'Titicut'
p3116
aNatp3117
bag1
(g2
(I0
tp3118
g4
tp3119
Rp3120
(I1
(I2
tp3121
g11
I00
(lp3122
S'OConnells'
p3123
aNatp3124
bag1
(g2
(I0
tp3125
g4
tp3126
Rp3127
(I1
(I2
tp3128
g11
I00
(lp3129
S'gaudi'
p3130
aNatp3131
bag1
(g2
(I0
tp3132
g4
tp3133
Rp3134
(I1
(I2
tp3135
g11
I00
(lp3136
S'Horosko'
p3137
aNatp3138
bag1
(g2
(I0
tp3139
g4
tp3140
Rp3141
(I1
(I2
tp3142
g11
I00
(lp3143
S'Bioluminescence'
p3144
aNatp3145
bag1
(g2
(I0
tp3146
g4
tp3147
Rp3148
(I1
(I2
tp3149
g11
I00
(lp3150
S'warmheart'
p3151
aNatp3152
bag1
(g2
(I0
tp3153
g4
tp3154
Rp3155
(I1
(I2
tp3156
g11
I00
(lp3157
S'mid-1917'
p3158
aNatp3159
bag1
(g2
(I0
tp3160
g4
tp3161
Rp3162
(I1
(I2
tp3163
g11
I00
(lp3164
S'apostl'
p3165
aNatp3166
bag1
(g2
(I0
tp3167
g4
tp3168
Rp3169
(I1
(I2
tp3170
g11
I00
(lp3171
S'hoari'
p3172
aNatp3173
bag1
(g2
(I0
tp3174
g4
tp3175
Rp3176
(I1
(I2
tp3177
g11
I00
(lp3178
S'irrepar'
p3179
aNatp3180
bag1
(g2
(I0
tp3181
g4
tp3182
Rp3183
(I1
(I2
tp3184
g11
I00
(lp3185
S'gribich'
p3186
aNatp3187
bag1
(g2
(I0
tp3188
g4
tp3189
Rp3190
(I1
(I2
tp3191
g11
I00
(lp3192
S'moreMelania'
p3193
aNatp3194
bag1
(g2
(I0
tp3195
g4
tp3196
Rp3197
(I1
(I2
tp3198
g11
I00
(lp3199
S'Rohes'
p3200
aNatp3201
bag1
(g2
(I0
tp3202
g4
tp3203
Rp3204
(I1
(I2
tp3205
g11
I00
(lp3206
S'Darzab'
p3207
aNatp3208
bag1
(g2
(I0
tp3209
g4
tp3210
Rp3211
(I1
(I2
tp3212
g11
I00
(lp3213
S'hydropow'
p3214
aNatp3215
bag1
(g2
(I0
tp3216
g4
tp3217
Rp3218
(I1
(I2
tp3219
g11
I00
(lp3220
S'850000'
p3221
aNatp3222
bag1
(g2
(I0
tp3223
g4
tp3224
Rp3225
(I1
(I2
tp3226
g11
I00
(lp3227
S'penni'
p3228
aNatp3229
bag1
(g2
(I0
tp3230
g4
tp3231
Rp3232
(I1
(I2
tp3233
g11
I00
(lp3234
S'Carbons'
p3235
aNatp3236
bag1
(g2
(I0
tp3237
g4
tp3238
Rp3239
(I1
(I2
tp3240
g11
I00
(lp3241
S'pinki'
p3242
aNatp3243
bag1
(g2
(I0
tp3244
g4
tp3245
Rp3246
(I1
(I2
tp3247
g11
I00
(lp3248
S'medica'
p3249
aNatp3250
bag1
(g2
(I0
tp3251
g4
tp3252
Rp3253
(I1
(I2
tp3254
g11
I00
(lp3255
S'Dudamels'
p3256
aNatp3257
bag1
(g2
(I0
tp3258
g4
tp3259
Rp3260
(I1
(I2
tp3261
g11
I00
(lp3262
S'endgam'
p3263
aNatp3264
bag1
(g2
(I0
tp3265
g4
tp3266
Rp3267
(I1
(I2
tp3268
g11
I00
(lp3269
S'U.S.-Mexico'
p3270
aNatp3271
bag1
(g2
(I0
tp3272
g4
tp3273
Rp3274
(I1
(I2
tp3275
g11
I00
(lp3276
S'Hilderbrands'
p3277
aNatp3278
bag1
(g2
(I0
tp3279
g4
tp3280
Rp3281
(I1
(I2
tp3282
g11
I00
(lp3283
S'Fuku'
p3284
aNatp3285
bag1
(g2
(I0
tp3286
g4
tp3287
Rp3288
(I1
(I2
tp3289
g11
I00
(lp3290
S'Litwins'
p3291
aNatp3292
bag1
(g2
(I0
tp3293
g4
tp3294
Rp3295
(I1
(I2
tp3296
g11
I00
(lp3297
S'Everlane'
p3298
aNatp3299
bag1
(g2
(I0
tp3300
g4
tp3301
Rp3302
(I1
(I2
tp3303
g11
I00
(lp3304
S'Marmalades'
p3305
aNatp3306
bag1
(g2
(I0
tp3307
g4
tp3308
Rp3309
(I1
(I2
tp3310
g11
I00
(lp3311
S'mustnt'
p3312
aNatp3313
bag1
(g2
(I0
tp3314
g4
tp3315
Rp3316
(I1
(I2
tp3317
g11
I00
(lp3318
S'Borghezio'
p3319
aNatp3320
bag1
(g2
(I0
tp3321
g4
tp3322
Rp3323
(I1
(I2
tp3324
g11
I00
(lp3325
S'nonstat'
p3326
aNatp3327
bag1
(g2
(I0
tp3328
g4
tp3329
Rp3330
(I1
(I2
tp3331
g11
I00
(lp3332
S'626000'
p3333
aNatp3334
bag1
(g2
(I0
tp3335
g4
tp3336
Rp3337
(I1
(I2
tp3338
g11
I00
(lp3339
S'Reacted'
p3340
aNatp3341
bag1
(g2
(I0
tp3342
g4
tp3343
Rp3344
(I1
(I2
tp3345
g11
I00
(lp3346
S'45-minute'
p3347
aNatp3348
bag1
(g2
(I0
tp3349
g4
tp3350
Rp3351
(I1
(I2
tp3352
g11
I00
(lp3353
S'Anoraks'
p3354
aNatp3355
bag1
(g2
(I0
tp3356
g4
tp3357
Rp3358
(I1
(I2
tp3359
g11
I00
(lp3360
S'41-year'
p3361
aNatp3362
bag1
(g2
(I0
tp3363
g4
tp3364
Rp3365
(I1
(I2
tp3366
g11
I00
(lp3367
S'Muskets'
p3368
aNatp3369
bag1
(g2
(I0
tp3370
g4
tp3371
Rp3372
(I1
(I2
tp3373
g11
I00
(lp3374
S'Provoleta'
p3375
aNatp3376
bag1
(g2
(I0
tp3377
g4
tp3378
Rp3379
(I1
(I2
tp3380
g11
I00
(lp3381
S'dayb'
p3382
aNatp3383
bag1
(g2
(I0
tp3384
g4
tp3385
Rp3386
(I1
(I2
tp3387
g11
I00
(lp3388
S'240-degree'
p3389
aNatp3390
bag1
(g2
(I0
tp3391
g4
tp3392
Rp3393
(I1
(I2
tp3394
g11
I00
(lp3395
S'Arbesser'
p3396
aNatp3397
bag1
(g2
(I0
tp3398
g4
tp3399
Rp3400
(I1
(I2
tp3401
g11
I00
(lp3402
S'vient'
p3403
aNatp3404
bag1
(g2
(I0
tp3405
g4
tp3406
Rp3407
(I1
(I2
tp3408
g11
I00
(lp3409
S'defamatori'
p3410
aNatp3411
bag1
(g2
(I0
tp3412
g4
tp3413
Rp3414
(I1
(I2
tp3415
g11
I00
(lp3416
S'promesa'
p3417
aNatp3418
bag1
(g2
(I0
tp3419
g4
tp3420
Rp3421
(I1
(I2
tp3422
g11
I00
(lp3423
S'Vinterbergs'
p3424
aNatp3425
bag1
(g2
(I0
tp3426
g4
tp3427
Rp3428
(I1
(I2
tp3429
g11
I00
(lp3430
S'Sharapovas'
p3431
aNatp3432
bag1
(g2
(I0
tp3433
g4
tp3434
Rp3435
(I1
(I2
tp3436
g11
I00
(lp3437
S'Kiermaier'
p3438
aNatp3439
bag1
(g2
(I0
tp3440
g4
tp3441
Rp3442
(I1
(I2
tp3443
g11
I00
(lp3444
S'Zenbanx'
p3445
aNatp3446
bag1
(g2
(I0
tp3447
g4
tp3448
Rp3449
(I1
(I2
tp3450
g11
I00
(lp3451
S'Zhonghong'
p3452
aNatp3453
bag1
(g2
(I0
tp3454
g4
tp3455
Rp3456
(I1
(I2
tp3457
g11
I00
(lp3458
S'embryon'
p3459
aNatp3460
bag1
(g2
(I0
tp3461
g4
tp3462
Rp3463
(I1
(I2
tp3464
g11
I00
(lp3465
S'Pfening'
p3466
aNatp3467
bag1
(g2
(I0
tp3468
g4
tp3469
Rp3470
(I1
(I2
tp3471
g11
I00
(lp3472
S'Sewalds'
p3473
aNatp3474
bag1
(g2
(I0
tp3475
g4
tp3476
Rp3477
(I1
(I2
tp3478
g11
I00
(lp3479
S'inscrib'
p3480
aNatp3481
bag1
(g2
(I0
tp3482
g4
tp3483
Rp3484
(I1
(I2
tp3485
g11
I00
(lp3486
S'314'
p3487
aNatp3488
bag1
(g2
(I0
tp3489
g4
tp3490
Rp3491
(I1
(I2
tp3492
g11
I00
(lp3493
S'Reincarnations'
p3494
aNatp3495
bag1
(g2
(I0
tp3496
g4
tp3497
Rp3498
(I1
(I2
tp3499
g11
I00
(lp3500
S'emergeearli'
p3501
aNatp3502
bag1
(g2
(I0
tp3503
g4
tp3504
Rp3505
(I1
(I2
tp3506
g11
I00
(lp3507
S'Liteky'
p3508
aNatp3509
bag1
(g2
(I0
tp3510
g4
tp3511
Rp3512
(I1
(I2
tp3513
g11
I00
(lp3514
S'Vigans'
p3515
aNatp3516
bag1
(g2
(I0
tp3517
g4
tp3518
Rp3519
(I1
(I2
tp3520
g11
I00
(lp3521
S'Deblinger'
p3522
aNatp3523
bag1
(g2
(I0
tp3524
g4
tp3525
Rp3526
(I1
(I2
tp3527
g11
I00
(lp3528
S'nytimescomreviewsmovi'
p3529
aNatp3530
bag1
(g2
(I0
tp3531
g4
tp3532
Rp3533
(I1
(I2
tp3534
g11
I00
(lp3535
S'rawther'
p3536
aNatp3537
bag1
(g2
(I0
tp3538
g4
tp3539
Rp3540
(I1
(I2
tp3541
g11
I00
(lp3542
S'M40i'
p3543
aNatp3544
bag1
(g2
(I0
tp3545
g4
tp3546
Rp3547
(I1
(I2
tp3548
g11
I00
(lp3549
S'RR15'
p3550
aNatp3551
bag1
(g2
(I0
tp3552
g4
tp3553
Rp3554
(I1
(I2
tp3555
g11
I00
(lp3556
S'leatheri'
p3557
aNatp3558
bag1
(g2
(I0
tp3559
g4
tp3560
Rp3561
(I1
(I2
tp3562
g11
I00
(lp3563
S'DAmato'
p3564
aNatp3565
bag1
(g2
(I0
tp3566
g4
tp3567
Rp3568
(I1
(I2
tp3569
g11
I00
(lp3570
S'71-minute'
p3571
aNatp3572
bag1
(g2
(I0
tp3573
g4
tp3574
Rp3575
(I1
(I2
tp3576
g11
I00
(lp3577
S'Biohs'
p3578
aNatp3579
bag1
(g2
(I0
tp3580
g4
tp3581
Rp3582
(I1
(I2
tp3583
g11
I00
(lp3584
S'Djalali'
p3585
aNatp3586
bag1
(g2
(I0
tp3587
g4
tp3588
Rp3589
(I1
(I2
tp3590
g11
I00
(lp3591
S'Genene'
p3592
aNatp3593
bag1
(g2
(I0
tp3594
g4
tp3595
Rp3596
(I1
(I2
tp3597
g11
I00
(lp3598
S'acto'
p3599
aNatp3600
bag1
(g2
(I0
tp3601
g4
tp3602
Rp3603
(I1
(I2
tp3604
g11
I00
(lp3605
S'ShareAmerica'
p3606
aNatp3607
bag1
(g2
(I0
tp3608
g4
tp3609
Rp3610
(I1
(I2
tp3611
g11
I00
(lp3612
S'Slenderman'
p3613
aNatp3614
bag1
(g2
(I0
tp3615
g4
tp3616
Rp3617
(I1
(I2
tp3618
g11
I00
(lp3619
S'Octoroon'
p3620
aNatp3621
bag1
(g2
(I0
tp3622
g4
tp3623
Rp3624
(I1
(I2
tp3625
g11
I00
(lp3626
S'Kosokos'
p3627
aNatp3628
bag1
(g2
(I0
tp3629
g4
tp3630
Rp3631
(I1
(I2
tp3632
g11
I00
(lp3633
S'Spissky'
p3634
aNatp3635
bag1
(g2
(I0
tp3636
g4
tp3637
Rp3638
(I1
(I2
tp3639
g11
I00
(lp3640
S'stonemasonri'
p3641
aNatp3642
bag1
(g2
(I0
tp3643
g4
tp3644
Rp3645
(I1
(I2
tp3646
g11
I00
(lp3647
S'patoi'
p3648
aNatp3649
bag1
(g2
(I0
tp3650
g4
tp3651
Rp3652
(I1
(I2
tp3653
g11
I00
(lp3654
S'Habashs'
p3655
aNatp3656
bag1
(g2
(I0
tp3657
g4
tp3658
Rp3659
(I1
(I2
tp3660
g11
I00
(lp3661
S'dispensari'
p3662
aNatp3663
bag1
(g2
(I0
tp3664
g4
tp3665
Rp3666
(I1
(I2
tp3667
g11
I00
(lp3668
S'neoconserv'
p3669
aNatp3670
bag1
(g2
(I0
tp3671
g4
tp3672
Rp3673
(I1
(I2
tp3674
g11
I00
(lp3675
S'unsign'
p3676
aNatp3677
bag1
(g2
(I0
tp3678
g4
tp3679
Rp3680
(I1
(I2
tp3681
g11
I00
(lp3682
S'Pressburgers'
p3683
aNatp3684
bag1
(g2
(I0
tp3685
g4
tp3686
Rp3687
(I1
(I2
tp3688
g11
I00
(lp3689
S'Videgaray'
p3690
aNatp3691
bag1
(g2
(I0
tp3692
g4
tp3693
Rp3694
(I1
(I2
tp3695
g11
I00
(lp3696
S'Duatos'
p3697
aNatp3698
bag1
(g2
(I0
tp3699
g4
tp3700
Rp3701
(I1
(I2
tp3702
g11
I00
(lp3703
S'Wolass'
p3704
aNatp3705
bag1
(g2
(I0
tp3706
g4
tp3707
Rp3708
(I1
(I2
tp3709
g11
I00
(lp3710
S'Stenmarks'
p3711
aNatp3712
bag1
(g2
(I0
tp3713
g4
tp3714
Rp3715
(I1
(I2
tp3716
g11
I00
(lp3717
S'Jiuliangs'
p3718
aNatp3719
bag1
(g2
(I0
tp3720
g4
tp3721
Rp3722
(I1
(I2
tp3723
g11
I00
(lp3724
S'pangram'
p3725
aNatp3726
bag1
(g2
(I0
tp3727
g4
tp3728
Rp3729
(I1
(I2
tp3730
g11
I00
(lp3731
S'Unmade'
p3732
aNatp3733
bag1
(g2
(I0
tp3734
g4
tp3735
Rp3736
(I1
(I2
tp3737
g11
I00
(lp3738
S'Blandisis'
p3739
aNatp3740
bag1
(g2
(I0
tp3741
g4
tp3742
Rp3743
(I1
(I2
tp3744
g11
I00
(lp3745
S'vivem'
p3746
aNatp3747
bag1
(g2
(I0
tp3748
g4
tp3749
Rp3750
(I1
(I2
tp3751
g11
I00
(lp3752
S'unleaven'
p3753
aNatp3754
bag1
(g2
(I0
tp3755
g4
tp3756
Rp3757
(I1
(I2
tp3758
g11
I00
(lp3759
S'Moongate'
p3760
aNatp3761
bag1
(g2
(I0
tp3762
g4
tp3763
Rp3764
(I1
(I2
tp3765
g11
I00
(lp3766
S'autoridad'
p3767
aNatp3768
bag1
(g2
(I0
tp3769
g4
tp3770
Rp3771
(I1
(I2
tp3772
g11
I00
(lp3773
S'Bides'
p3774
aNatp3775
bag1
(g2
(I0
tp3776
g4
tp3777
Rp3778
(I1
(I2
tp3779
g11
I00
(lp3780
S'Frenglish'
p3781
aNatp3782
bag1
(g2
(I0
tp3783
g4
tp3784
Rp3785
(I1
(I2
tp3786
g11
I00
(lp3787
S'1755'
p3788
aNatp3789
bag1
(g2
(I0
tp3790
g4
tp3791
Rp3792
(I1
(I2
tp3793
g11
I00
(lp3794
S'vagin'
p3795
aNatp3796
bag1
(g2
(I0
tp3797
g4
tp3798
Rp3799
(I1
(I2
tp3800
g11
I00
(lp3801
S'Akinnagbe'
p3802
aNatp3803
bag1
(g2
(I0
tp3804
g4
tp3805
Rp3806
(I1
(I2
tp3807
g11
I00
(lp3808
S'McIlroys'
p3809
aNatp3810
bag1
(g2
(I0
tp3811
g4
tp3812
Rp3813
(I1
(I2
tp3814
g11
I00
(lp3815
S'demographi'
p3816
aNatp3817
bag1
(g2
(I0
tp3818
g4
tp3819
Rp3820
(I1
(I2
tp3821
g11
I00
(lp3822
S'Livelys'
p3823
aNatp3824
bag1
(g2
(I0
tp3825
g4
tp3826
Rp3827
(I1
(I2
tp3828
g11
I00
(lp3829
S'17-century'
p3830
aNatp3831
bag1
(g2
(I0
tp3832
g4
tp3833
Rp3834
(I1
(I2
tp3835
g11
I00
(lp3836
S'supremac'
p3837
aNatp3838
bag1
(g2
(I0
tp3839
g4
tp3840
Rp3841
(I1
(I2
tp3842
g11
I00
(lp3843
S'Acuerdo'
p3844
aNatp3845
bag1
(g2
(I0
tp3846
g4
tp3847
Rp3848
(I1
(I2
tp3849
g11
I00
(lp3850
S'Pachico'
p3851
aNatp3852
bag1
(g2
(I0
tp3853
g4
tp3854
Rp3855
(I1
(I2
tp3856
g11
I00
(lp3857
S'480'
p3858
aNatp3859
bag1
(g2
(I0
tp3860
g4
tp3861
Rp3862
(I1
(I2
tp3863
g11
I00
(lp3864
S'Consiglia'
p3865
aNatp3866
bag1
(g2
(I0
tp3867
g4
tp3868
Rp3869
(I1
(I2
tp3870
g11
I00
(lp3871
S'Laundroid'
p3872
aNatp3873
bag1
(g2
(I0
tp3874
g4
tp3875
Rp3876
(I1
(I2
tp3877
g11
I00
(lp3878
S'PopWich'
p3879
aNatp3880
bag1
(g2
(I0
tp3881
g4
tp3882
Rp3883
(I1
(I2
tp3884
g11
I00
(lp3885
S'bestsel'
p3886
aNatp3887
bag1
(g2
(I0
tp3888
g4
tp3889
Rp3890
(I1
(I2
tp3891
g11
I00
(lp3892
S'79-71'
p3893
aNatp3894
bag1
(g2
(I0
tp3895
g4
tp3896
Rp3897
(I1
(I2
tp3898
g11
I00
(lp3899
S'vainqueur'
p3900
aNatp3901
bag1
(g2
(I0
tp3902
g4
tp3903
Rp3904
(I1
(I2
tp3905
g11
I00
(lp3906
S'Yangons'
p3907
aNatp3908
bag1
(g2
(I0
tp3909
g4
tp3910
Rp3911
(I1
(I2
tp3912
g11
I00
(lp3913
S'teakettl'
p3914
aNatp3915
bag1
(g2
(I0
tp3916
g4
tp3917
Rp3918
(I1
(I2
tp3919
g11
I00
(lp3920
S'WANES'
p3921
aNatp3922
bag1
(g2
(I0
tp3923
g4
tp3924
Rp3925
(I1
(I2
tp3926
g11
I00
(lp3927
S'FANtasies'
p3928
aNatp3929
bag1
(g2
(I0
tp3930
g4
tp3931
Rp3932
(I1
(I2
tp3933
g11
I00
(lp3934
S'trucul'
p3935
aNatp3936
bag1
(g2
(I0
tp3937
g4
tp3938
Rp3939
(I1
(I2
tp3940
g11
I00
(lp3941
S'Indiegogo'
p3942
aNatp3943
bag1
(g2
(I0
tp3944
g4
tp3945
Rp3946
(I1
(I2
tp3947
g11
I00
(lp3948
S'Asterias'
p3949
aNatp3950
bag1
(g2
(I0
tp3951
g4
tp3952
Rp3953
(I1
(I2
tp3954
g11
I00
(lp3955
S'Philanthropies'
p3956
aNatp3957
bag1
(g2
(I0
tp3958
g4
tp3959
Rp3960
(I1
(I2
tp3961
g11
I00
(lp3962
S'moray'
p3963
aNatp3964
bag1
(g2
(I0
tp3965
g4
tp3966
Rp3967
(I1
(I2
tp3968
g11
I00
(lp3969
S'Stolmans'
p3970
aNatp3971
bag1
(g2
(I0
tp3972
g4
tp3973
Rp3974
(I1
(I2
tp3975
g11
I00
(lp3976
S'Legatos'
p3977
aNatp3978
bag1
(g2
(I0
tp3979
g4
tp3980
Rp3981
(I1
(I2
tp3982
g11
I00
(lp3983
S'copiou'
p3984
aNatp3985
bag1
(g2
(I0
tp3986
g4
tp3987
Rp3988
(I1
(I2
tp3989
g11
I00
(lp3990
S'sharknado'
p3991
aNatp3992
bag1
(g2
(I0
tp3993
g4
tp3994
Rp3995
(I1
(I2
tp3996
g11
I00
(lp3997
S'monogami'
p3998
aNatp3999
bag1
(g2
(I0
tp4000
g4
tp4001
Rp4002
(I1
(I2
tp4003
g11
I00
(lp4004
S'Girner'
p4005
aNatp4006
bag1
(g2
(I0
tp4007
g4
tp4008
Rp4009
(I1
(I2
tp4010
g11
I00
(lp4011
S'Agamis'
p4012
aNatp4013
bag1
(g2
(I0
tp4014
g4
tp4015
Rp4016
(I1
(I2
tp4017
g11
I00
(lp4018
S'schav'
p4019
aNatp4020
bag1
(g2
(I0
tp4021
g4
tp4022
Rp4023
(I1
(I2
tp4024
g11
I00
(lp4025
S'comercializado'
p4026
aNatp4027
bag1
(g2
(I0
tp4028
g4
tp4029
Rp4030
(I1
(I2
tp4031
g11
I00
(lp4032
S'Pesquet'
p4033
aNatp4034
bag1
(g2
(I0
tp4035
g4
tp4036
Rp4037
(I1
(I2
tp4038
g11
I00
(lp4039
S'legaux'
p4040
aNatp4041
bag1
(g2
(I0
tp4042
g4
tp4043
Rp4044
(I1
(I2
tp4045
g11
I00
(lp4046
S'Piora'
p4047
aNatp4048
bag1
(g2
(I0
tp4049
g4
tp4050
Rp4051
(I1
(I2
tp4052
g11
I00
(lp4053
S'Stephenss'
p4054
aNatp4055
bag1
(g2
(I0
tp4056
g4
tp4057
Rp4058
(I1
(I2
tp4059
g11
I00
(lp4060
S'Iberts'
p4061
aNatp4062
bag1
(g2
(I0
tp4063
g4
tp4064
Rp4065
(I1
(I2
tp4066
g11
I00
(lp4067
S'segura'
p4068
aNatp4069
bag1
(g2
(I0
tp4070
g4
tp4071
Rp4072
(I1
(I2
tp4073
g11
I00
(lp4074
S'Lhotas'
p4075
aNatp4076
bag1
(g2
(I0
tp4077
g4
tp4078
Rp4079
(I1
(I2
tp4080
g11
I00
(lp4081
S'Necrotizing'
p4082
aNatp4083
bag1
(g2
(I0
tp4084
g4
tp4085
Rp4086
(I1
(I2
tp4087
g11
I00
(lp4088
S'jazzi'
p4089
aNatp4090
bag1
(g2
(I0
tp4091
g4
tp4092
Rp4093
(I1
(I2
tp4094
g11
I00
(lp4095
S'Geltman'
p4096
aNatp4097
bag1
(g2
(I0
tp4098
g4
tp4099
Rp4100
(I1
(I2
tp4101
g11
I00
(lp4102
S'113-page'
p4103
aNatp4104
bag1
(g2
(I0
tp4105
g4
tp4106
Rp4107
(I1
(I2
tp4108
g11
I00
(lp4109
S'Ciameis'
p4110
aNatp4111
bag1
(g2
(I0
tp4112
g4
tp4113
Rp4114
(I1
(I2
tp4115
g11
I00
(lp4116
S'Arike'
p4117
aNatp4118
bag1
(g2
(I0
tp4119
g4
tp4120
Rp4121
(I1
(I2
tp4122
g11
I00
(lp4123
S'wiggl'
p4124
aNatp4125
bag1
(g2
(I0
tp4126
g4
tp4127
Rp4128
(I1
(I2
tp4129
g11
I00
(lp4130
S'Zeinali'
p4131
aNatp4132
bag1
(g2
(I0
tp4133
g4
tp4134
Rp4135
(I1
(I2
tp4136
g11
I00
(lp4137
S'1180'
p4138
aNatp4139
bag1
(g2
(I0
tp4140
g4
tp4141
Rp4142
(I1
(I2
tp4143
g11
I00
(lp4144
S'asund'
p4145
aNatp4146
bag1
(g2
(I0
tp4147
g4
tp4148
Rp4149
(I1
(I2
tp4150
g11
I00
(lp4151
S'pacemak'
p4152
aNatp4153
bag1
(g2
(I0
tp4154
g4
tp4155
Rp4156
(I1
(I2
tp4157
g11
I00
(lp4158
S'1952-1965'
p4159
aNatp4160
bag1
(g2
(I0
tp4161
g4
tp4162
Rp4163
(I1
(I2
tp4164
g11
I00
(lp4165
S'seastead'
p4166
aNatp4167
bag1
(g2
(I0
tp4168
g4
tp4169
Rp4170
(I1
(I2
tp4171
g11
I00
(lp4172
S'analges'
p4173
aNatp4174
bag1
(g2
(I0
tp4175
g4
tp4176
Rp4177
(I1
(I2
tp4178
g11
I00
(lp4179
S'rester'
p4180
aNatp4181
bag1
(g2
(I0
tp4182
g4
tp4183
Rp4184
(I1
(I2
tp4185
g11
I00
(lp4186
S'49er'
p4187
aNatp4188
bag1
(g2
(I0
tp4189
g4
tp4190
Rp4191
(I1
(I2
tp4192
g11
I00
(lp4193
S'Strouts'
p4194
aNatp4195
bag1
(g2
(I0
tp4196
g4
tp4197
Rp4198
(I1
(I2
tp4199
g11
I00
(lp4200
S'Dramastics'
p4201
aNatp4202
bag1
(g2
(I0
tp4203
g4
tp4204
Rp4205
(I1
(I2
tp4206
g11
I00
(lp4207
S'relativ'
p4208
aNatp4209
bag1
(g2
(I0
tp4210
g4
tp4211
Rp4212
(I1
(I2
tp4213
g11
I00
(lp4214
S'pantomim'
p4215
aNatp4216
bag1
(g2
(I0
tp4217
g4
tp4218
Rp4219
(I1
(I2
tp4220
g11
I00
(lp4221
S'Desormeaus'
p4222
aNatp4223
bag1
(g2
(I0
tp4224
g4
tp4225
Rp4226
(I1
(I2
tp4227
g11
I00
(lp4228
S'Plainspoken'
p4229
aNatp4230
bag1
(g2
(I0
tp4231
g4
tp4232
Rp4233
(I1
(I2
tp4234
g11
I00
(lp4235
S'Zukofsky'
p4236
aNatp4237
bag1
(g2
(I0
tp4238
g4
tp4239
Rp4240
(I1
(I2
tp4241
g11
I00
(lp4242
S'Breche'
p4243
aNatp4244
bag1
(g2
(I0
tp4245
g4
tp4246
Rp4247
(I1
(I2
tp4248
g11
I00
(lp4249
S'Aumonts'
p4250
aNatp4251
bag1
(g2
(I0
tp4252
g4
tp4253
Rp4254
(I1
(I2
tp4255
g11
I00
(lp4256
S'Brusselss'
p4257
aNatp4258
bag1
(g2
(I0
tp4259
g4
tp4260
Rp4261
(I1
(I2
tp4262
g11
I00
(lp4263
S'Hyres'
p4264
aNatp4265
bag1
(g2
(I0
tp4266
g4
tp4267
Rp4268
(I1
(I2
tp4269
g11
I00
(lp4270
S'Lavong'
p4271
aNatp4272
bag1
(g2
(I0
tp4273
g4
tp4274
Rp4275
(I1
(I2
tp4276
g11
I00
(lp4277
S'Aromanticism'
p4278
aNatp4279
bag1
(g2
(I0
tp4280
g4
tp4281
Rp4282
(I1
(I2
tp4283
g11
I00
(lp4284
S'Vecseys'
p4285
aNatp4286
bag1
(g2
(I0
tp4287
g4
tp4288
Rp4289
(I1
(I2
tp4290
g11
I00
(lp4291
S'83-room'
p4292
aNatp4293
bag1
(g2
(I0
tp4294
g4
tp4295
Rp4296
(I1
(I2
tp4297
g11
I00
(lp4298
S'Blankenbuehler'
p4299
aNatp4300
bag1
(g2
(I0
tp4301
g4
tp4302
Rp4303
(I1
(I2
tp4304
g11
I00
(lp4305
S'portraitur'
p4306
aNatp4307
bag1
(g2
(I0
tp4308
g4
tp4309
Rp4310
(I1
(I2
tp4311
g11
I00
(lp4312
S'llevar'
p4313
aNatp4314
bag1
(g2
(I0
tp4315
g4
tp4316
Rp4317
(I1
(I2
tp4318
g11
I00
(lp4319
S'hilar'
p4320
aNatp4321
bag1
(g2
(I0
tp4322
g4
tp4323
Rp4324
(I1
(I2
tp4325
g11
I00
(lp4326
S'miserli'
p4327
aNatp4328
bag1
(g2
(I0
tp4329
g4
tp4330
Rp4331
(I1
(I2
tp4332
g11
I00
(lp4333
S'Bodah'
p4334
aNatp4335
bag1
(g2
(I0
tp4336
g4
tp4337
Rp4338
(I1
(I2
tp4339
g11
I00
(lp4340
S'7-Eleven'
p4341
aNatp4342
bag1
(g2
(I0
tp4343
g4
tp4344
Rp4345
(I1
(I2
tp4346
g11
I00
(lp4347
S'Libris'
p4348
aNatp4349
bag1
(g2
(I0
tp4350
g4
tp4351
Rp4352
(I1
(I2
tp4353
g11
I00
(lp4354
S'286'
p4355
aNatp4356
bag1
(g2
(I0
tp4357
g4
tp4358
Rp4359
(I1
(I2
tp4360
g11
I00
(lp4361
S'Delias'
p4362
aNatp4363
bag1
(g2
(I0
tp4364
g4
tp4365
Rp4366
(I1
(I2
tp4367
g11
I00
(lp4368
S'Oiticicas'
p4369
aNatp4370
bag1
(g2
(I0
tp4371
g4
tp4372
Rp4373
(I1
(I2
tp4374
g11
I00
(lp4375
S'republiqu'
p4376
aNatp4377
bag1
(g2
(I0
tp4378
g4
tp4379
Rp4380
(I1
(I2
tp4381
g11
I00
(lp4382
S'Imagenes'
p4383
aNatp4384
bag1
(g2
(I0
tp4385
g4
tp4386
Rp4387
(I1
(I2
tp4388
g11
I00
(lp4389
S'Voodooier'
p4390
aNatp4391
bag1
(g2
(I0
tp4392
g4
tp4393
Rp4394
(I1
(I2
tp4395
g11
I00
(lp4396
S'antipollut'
p4397
aNatp4398
bag1
(g2
(I0
tp4399
g4
tp4400
Rp4401
(I1
(I2
tp4402
g11
I00
(lp4403
S',Cindy'
p4404
aNatp4405
bag1
(g2
(I0
tp4406
g4
tp4407
Rp4408
(I1
(I2
tp4409
g11
I00
(lp4410
S'pushov'
p4411
aNatp4412
bag1
(g2
(I0
tp4413
g4
tp4414
Rp4415
(I1
(I2
tp4416
g11
I00
(lp4417
S'11517'
p4418
aNatp4419
bag1
(g2
(I0
tp4420
g4
tp4421
Rp4422
(I1
(I2
tp4423
g11
I00
(lp4424
S'latissimu'
p4425
aNatp4426
bag1
(g2
(I0
tp4427
g4
tp4428
Rp4429
(I1
(I2
tp4430
g11
I00
(lp4431
S'Pokeweed'
p4432
aNatp4433
bag1
(g2
(I0
tp4434
g4
tp4435
Rp4436
(I1
(I2
tp4437
g11
I00
(lp4438
S'Evanss'
p4439
aNatp4440
bag1
(g2
(I0
tp4441
g4
tp4442
Rp4443
(I1
(I2
tp4444
g11
I00
(lp4445
S'Birnbachs'
p4446
aNatp4447
bag1
(g2
(I0
tp4448
g4
tp4449
Rp4450
(I1
(I2
tp4451
g11
I00
(lp4452
S'AirDrop'
p4453
aNatp4454
bag1
(g2
(I0
tp4455
g4
tp4456
Rp4457
(I1
(I2
tp4458
g11
I00
(lp4459
S'Kingsnorths'
p4460
aNatp4461
bag1
(g2
(I0
tp4462
g4
tp4463
Rp4464
(I1
(I2
tp4465
g11
I00
(lp4466
S'Lakeith'
p4467
aNatp4468
bag1
(g2
(I0
tp4469
g4
tp4470
Rp4471
(I1
(I2
tp4472
g11
I00
(lp4473
S'Authoritys'
p4474
aNatp4475
bag1
(g2
(I0
tp4476
g4
tp4477
Rp4478
(I1
(I2
tp4479
g11
I00
(lp4480
S'247Sports'
p4481
aNatp4482
bag1
(g2
(I0
tp4483
g4
tp4484
Rp4485
(I1
(I2
tp4486
g11
I00
(lp4487
S'Koyasan'
p4488
aNatp4489
bag1
(g2
(I0
tp4490
g4
tp4491
Rp4492
(I1
(I2
tp4493
g11
I00
(lp4494
S'Trills'
p4495
aNatp4496
bag1
(g2
(I0
tp4497
g4
tp4498
Rp4499
(I1
(I2
tp4500
g11
I00
(lp4501
S'topiari'
p4502
aNatp4503
bag1
(g2
(I0
tp4504
g4
tp4505
Rp4506
(I1
(I2
tp4507
g11
I00
(lp4508
S'Azongo'
p4509
aNatp4510
bag1
(g2
(I0
tp4511
g4
tp4512
Rp4513
(I1
(I2
tp4514
g11
I00
(lp4515
S'Adrias'
p4516
aNatp4517
bag1
(g2
(I0
tp4518
g4
tp4519
Rp4520
(I1
(I2
tp4521
g11
I00
(lp4522
S'1400s'
p4523
aNatp4524
bag1
(g2
(I0
tp4525
g4
tp4526
Rp4527
(I1
(I2
tp4528
g11
I00
(lp4529
S'Middlesbroughs'
p4530
aNatp4531
bag1
(g2
(I0
tp4532
g4
tp4533
Rp4534
(I1
(I2
tp4535
g11
I00
(lp4536
S'cutleri'
p4537
aNatp4538
bag1
(g2
(I0
tp4539
g4
tp4540
Rp4541
(I1
(I2
tp4542
g11
I00
(lp4543
S'Aldaher'
p4544
aNatp4545
bag1
(g2
(I0
tp4546
g4
tp4547
Rp4548
(I1
(I2
tp4549
g11
I00
(lp4550
S'Gentlys'
p4551
aNatp4552
bag1
(g2
(I0
tp4553
g4
tp4554
Rp4555
(I1
(I2
tp4556
g11
I00
(lp4557
S'Karyo'
p4558
aNatp4559
bag1
(g2
(I0
tp4560
g4
tp4561
Rp4562
(I1
(I2
tp4563
g11
I00
(lp4564
S'11-time'
p4565
aNatp4566
bag1
(g2
(I0
tp4567
g4
tp4568
Rp4569
(I1
(I2
tp4570
g11
I00
(lp4571
S'Makks'
p4572
aNatp4573
bag1
(g2
(I0
tp4574
g4
tp4575
Rp4576
(I1
(I2
tp4577
g11
I00
(lp4578
S'midsumm'
p4579
aNatp4580
bag1
(g2
(I0
tp4581
g4
tp4582
Rp4583
(I1
(I2
tp4584
g11
I00
(lp4585
S'24-karat'
p4586
aNatp4587
bag1
(g2
(I0
tp4588
g4
tp4589
Rp4590
(I1
(I2
tp4591
g11
I00
(lp4592
S'Schaubuhne'
p4593
aNatp4594
bag1
(g2
(I0
tp4595
g4
tp4596
Rp4597
(I1
(I2
tp4598
g11
I00
(lp4599
S'Russes'
p4600
aNatp4601
bag1
(g2
(I0
tp4602
g4
tp4603
Rp4604
(I1
(I2
tp4605
g11
I00
(lp4606
S'Cantwells'
p4607
aNatp4608
bag1
(g2
(I0
tp4609
g4
tp4610
Rp4611
(I1
(I2
tp4612
g11
I00
(lp4613
S'Deliveroo'
p4614
aNatp4615
bag1
(g2
(I0
tp4616
g4
tp4617
Rp4618
(I1
(I2
tp4619
g11
I00
(lp4620
S'unhappili'
p4621
aNatp4622
bag1
(g2
(I0
tp4623
g4
tp4624
Rp4625
(I1
(I2
tp4626
g11
I00
(lp4627
S'glucosamin'
p4628
aNatp4629
bag1
(g2
(I0
tp4630
g4
tp4631
Rp4632
(I1
(I2
tp4633
g11
I00
(lp4634
S'Bageri'
p4635
aNatp4636
bag1
(g2
(I0
tp4637
g4
tp4638
Rp4639
(I1
(I2
tp4640
g11
I00
(lp4641
S'vitual'
p4642
aNatp4643
bag1
(g2
(I0
tp4644
g4
tp4645
Rp4646
(I1
(I2
tp4647
g11
I00
(lp4648
S'Cornells'
p4649
aNatp4650
bag1
(g2
(I0
tp4651
g4
tp4652
Rp4653
(I1
(I2
tp4654
g11
I00
(lp4655
S'fleec'
p4656
aNatp4657
bag1
(g2
(I0
tp4658
g4
tp4659
Rp4660
(I1
(I2
tp4661
g11
I00
(lp4662
S'hardcor'
p4663
aNatp4664
bag1
(g2
(I0
tp4665
g4
tp4666
Rp4667
(I1
(I2
tp4668
g11
I00
(lp4669
S'11-10-1'
p4670
aNatp4671
bag1
(g2
(I0
tp4672
g4
tp4673
Rp4674
(I1
(I2
tp4675
g11
I00
(lp4676
S'tecton'
p4677
aNatp4678
bag1
(g2
(I0
tp4679
g4
tp4680
Rp4681
(I1
(I2
tp4682
g11
I00
(lp4683
S'A24'
p4684
aNatp4685
bag1
(g2
(I0
tp4686
g4
tp4687
Rp4688
(I1
(I2
tp4689
g11
I00
(lp4690
S'Munyanezas'
p4691
aNatp4692
bag1
(g2
(I0
tp4693
g4
tp4694
Rp4695
(I1
(I2
tp4696
g11
I00
(lp4697
S'Schurs'
p4698
aNatp4699
bag1
(g2
(I0
tp4700
g4
tp4701
Rp4702
(I1
(I2
tp4703
g11
I00
(lp4704
S'Mawhood'
p4705
aNatp4706
bag1
(g2
(I0
tp4707
g4
tp4708
Rp4709
(I1
(I2
tp4710
g11
I00
(lp4711
S'74-70'
p4712
aNatp4713
bag1
(g2
(I0
tp4714
g4
tp4715
Rp4716
(I1
(I2
tp4717
g11
I00
(lp4718
S'Dupixent'
p4719
aNatp4720
bag1
(g2
(I0
tp4721
g4
tp4722
Rp4723
(I1
(I2
tp4724
g11
I00
(lp4725
S'72000'
p4726
aNatp4727
bag1
(g2
(I0
tp4728
g4
tp4729
Rp4730
(I1
(I2
tp4731
g11
I00
(lp4732
S'2078'
p4733
aNatp4734
bag1
(g2
(I0
tp4735
g4
tp4736
Rp4737
(I1
(I2
tp4738
g11
I00
(lp4739
S'proxima'
p4740
aNatp4741
bag1
(g2
(I0
tp4742
g4
tp4743
Rp4744
(I1
(I2
tp4745
g11
I00
(lp4746
S'Rosenblooms'
p4747
aNatp4748
bag1
(g2
(I0
tp4749
g4
tp4750
Rp4751
(I1
(I2
tp4752
g11
I00
(lp4753
S'77-hour'
p4754
aNatp4755
bag1
(g2
(I0
tp4756
g4
tp4757
Rp4758
(I1
(I2
tp4759
g11
I00
(lp4760
S'lezer'
p4761
aNatp4762
bag1
(g2
(I0
tp4763
g4
tp4764
Rp4765
(I1
(I2
tp4766
g11
I00
(lp4767
S'windflow'
p4768
aNatp4769
bag1
(g2
(I0
tp4770
g4
tp4771
Rp4772
(I1
(I2
tp4773
g11
I00
(lp4774
S'keepcalmandcarryon'
p4775
aNatp4776
bag1
(g2
(I0
tp4777
g4
tp4778
Rp4779
(I1
(I2
tp4780
g11
I00
(lp4781
S'342'
p4782
aNatp4783
bag1
(g2
(I0
tp4784
g4
tp4785
Rp4786
(I1
(I2
tp4787
g11
I00
(lp4788
S'LeBec'
p4789
aNatp4790
bag1
(g2
(I0
tp4791
g4
tp4792
Rp4793
(I1
(I2
tp4794
g11
I00
(lp4795
S'73rd'
p4796
aNatp4797
bag1
(g2
(I0
tp4798
g4
tp4799
Rp4800
(I1
(I2
tp4801
g11
I00
(lp4802
S'Mariss'
p4803
aNatp4804
bag1
(g2
(I0
tp4805
g4
tp4806
Rp4807
(I1
(I2
tp4808
g11
I00
(lp4809
S'Gik'
p4810
aNatp4811
bag1
(g2
(I0
tp4812
g4
tp4813
Rp4814
(I1
(I2
tp4815
g11
I00
(lp4816
S'40-city'
p4817
aNatp4818
bag1
(g2
(I0
tp4819
g4
tp4820
Rp4821
(I1
(I2
tp4822
g11
I00
(lp4823
S'dramedi'
p4824
aNatp4825
bag1
(g2
(I0
tp4826
g4
tp4827
Rp4828
(I1
(I2
tp4829
g11
I00
(lp4830
S'menageri'
p4831
aNatp4832
bag1
(g2
(I0
tp4833
g4
tp4834
Rp4835
(I1
(I2
tp4836
g11
I00
(lp4837
S'9,000-mile'
p4838
aNatp4839
bag1
(g2
(I0
tp4840
g4
tp4841
Rp4842
(I1
(I2
tp4843
g11
I00
(lp4844
S'Brinas'
p4845
aNatp4846
bag1
(g2
(I0
tp4847
g4
tp4848
Rp4849
(I1
(I2
tp4850
g11
I00
(lp4851
S'405-acre'
p4852
aNatp4853
bag1
(g2
(I0
tp4854
g4
tp4855
Rp4856
(I1
(I2
tp4857
g11
I00
(lp4858
S'meritocraci'
p4859
aNatp4860
bag1
(g2
(I0
tp4861
g4
tp4862
Rp4863
(I1
(I2
tp4864
g11
I00
(lp4865
S'Prettily'
p4866
aNatp4867
bag1
(g2
(I0
tp4868
g4
tp4869
Rp4870
(I1
(I2
tp4871
g11
I00
(lp4872
S'scrimmag'
p4873
aNatp4874
bag1
(g2
(I0
tp4875
g4
tp4876
Rp4877
(I1
(I2
tp4878
g11
I00
(lp4879
S'biopsi'
p4880
aNatp4881
bag1
(g2
(I0
tp4882
g4
tp4883
Rp4884
(I1
(I2
tp4885
g11
I00
(lp4886
S'Truffauts'
p4887
aNatp4888
bag1
(g2
(I0
tp4889
g4
tp4890
Rp4891
(I1
(I2
tp4892
g11
I00
(lp4893
S'DeMarios'
p4894
aNatp4895
bag1
(g2
(I0
tp4896
g4
tp4897
Rp4898
(I1
(I2
tp4899
g11
I00
(lp4900
S'mansplain'
p4901
aNatp4902
bag1
(g2
(I0
tp4903
g4
tp4904
Rp4905
(I1
(I2
tp4906
g11
I00
(lp4907
S'cruciverb'
p4908
aNatp4909
bag1
(g2
(I0
tp4910
g4
tp4911
Rp4912
(I1
(I2
tp4913
g11
I00
(lp4914
S'nonexclus'
p4915
aNatp4916
bag1
(g2
(I0
tp4917
g4
tp4918
Rp4919
(I1
(I2
tp4920
g11
I00
(lp4921
S'Frontmen'
p4922
aNatp4923
bag1
(g2
(I0
tp4924
g4
tp4925
Rp4926
(I1
(I2
tp4927
g11
I00
(lp4928
S'indiscrimin'
p4929
aNatp4930
bag1
(g2
(I0
tp4931
g4
tp4932
Rp4933
(I1
(I2
tp4934
g11
I00
(lp4935
S'Roffmans'
p4936
aNatp4937
bag1
(g2
(I0
tp4938
g4
tp4939
Rp4940
(I1
(I2
tp4941
g11
I00
(lp4942
S'Monteverdis'
p4943
aNatp4944
bag1
(g2
(I0
tp4945
g4
tp4946
Rp4947
(I1
(I2
tp4948
g11
I00
(lp4949
S'suffic'
p4950
aNatp4951
bag1
(g2
(I0
tp4952
g4
tp4953
Rp4954
(I1
(I2
tp4955
g11
I00
(lp4956
S'Batalon'
p4957
aNatp4958
bag1
(g2
(I0
tp4959
g4
tp4960
Rp4961
(I1
(I2
tp4962
g11
I00
(lp4963
S'\xc3\x8ele-\xc3\xa0-Vache'
p4964
aNatp4965
bag1
(g2
(I0
tp4966
g4
tp4967
Rp4968
(I1
(I2
tp4969
g11
I00
(lp4970
S'Malted'
p4971
aNatp4972
bag1
(g2
(I0
tp4973
g4
tp4974
Rp4975
(I1
(I2
tp4976
g11
I00
(lp4977
S'entendr'
p4978
aNatp4979
bag1
(g2
(I0
tp4980
g4
tp4981
Rp4982
(I1
(I2
tp4983
g11
I00
(lp4984
S'radianc'
p4985
aNatp4986
bag1
(g2
(I0
tp4987
g4
tp4988
Rp4989
(I1
(I2
tp4990
g11
I00
(lp4991
S'Akhtars'
p4992
aNatp4993
bag1
(g2
(I0
tp4994
g4
tp4995
Rp4996
(I1
(I2
tp4997
g11
I00
(lp4998
S'disson'
p4999
aNatp5000
bag1
(g2
(I0
tp5001
g4
tp5002
Rp5003
(I1
(I2
tp5004
g11
I00
(lp5005
S'51417'
p5006
aNatp5007
bag1
(g2
(I0
tp5008
g4
tp5009
Rp5010
(I1
(I2
tp5011
g11
I00
(lp5012
S'Refslund'
p5013
aNatp5014
bag1
(g2
(I0
tp5015
g4
tp5016
Rp5017
(I1
(I2
tp5018
g11
I00
(lp5019
S'Gobstoppers'
p5020
aNatp5021
bag1
(g2
(I0
tp5022
g4
tp5023
Rp5024
(I1
(I2
tp5025
g11
I00
(lp5026
S'agreeabl'
p5027
aNatp5028
bag1
(g2
(I0
tp5029
g4
tp5030
Rp5031
(I1
(I2
tp5032
g11
I00
(lp5033
S'Bouders'
p5034
aNatp5035
bag1
(g2
(I0
tp5036
g4
tp5037
Rp5038
(I1
(I2
tp5039
g11
I00
(lp5040
S'huracan'
p5041
aNatp5042
bag1
(g2
(I0
tp5043
g4
tp5044
Rp5045
(I1
(I2
tp5046
g11
I00
(lp5047
S'cleanli'
p5048
aNatp5049
bag1
(g2
(I0
tp5050
g4
tp5051
Rp5052
(I1
(I2
tp5053
g11
I00
(lp5054
S'grossli'
p5055
aNatp5056
bag1
(g2
(I0
tp5057
g4
tp5058
Rp5059
(I1
(I2
tp5060
g11
I00
(lp5061
S'Bialowieza'
p5062
aNatp5063
bag1
(g2
(I0
tp5064
g4
tp5065
Rp5066
(I1
(I2
tp5067
g11
I00
(lp5068
S'Rublev'
p5069
aNatp5070
bag1
(g2
(I0
tp5071
g4
tp5072
Rp5073
(I1
(I2
tp5074
g11
I00
(lp5075
S'dOr'
p5076
aNatp5077
bag1
(g2
(I0
tp5078
g4
tp5079
Rp5080
(I1
(I2
tp5081
g11
I00
(lp5082
S'Guardiolas'
p5083
aNatp5084
bag1
(g2
(I0
tp5085
g4
tp5086
Rp5087
(I1
(I2
tp5088
g11
I00
(lp5089
S'sexuel'
p5090
aNatp5091
bag1
(g2
(I0
tp5092
g4
tp5093
Rp5094
(I1
(I2
tp5095
g11
I00
(lp5096
S'perki'
p5097
aNatp5098
bag1
(g2
(I0
tp5099
g4
tp5100
Rp5101
(I1
(I2
tp5102
g11
I00
(lp5103
S'turntabl'
p5104
aNatp5105
bag1
(g2
(I0
tp5106
g4
tp5107
Rp5108
(I1
(I2
tp5109
g11
I00
(lp5110
S'zealou'
p5111
aNatp5112
bag1
(g2
(I0
tp5113
g4
tp5114
Rp5115
(I1
(I2
tp5116
g11
I00
(lp5117
S'Pizzolatto'
p5118
aNatp5119
bag1
(g2
(I0
tp5120
g4
tp5121
Rp5122
(I1
(I2
tp5123
g11
I00
(lp5124
S'epiphani'
p5125
aNatp5126
bag1
(g2
(I0
tp5127
g4
tp5128
Rp5129
(I1
(I2
tp5130
g11
I00
(lp5131
S'ISISs'
p5132
aNatp5133
bag1
(g2
(I0
tp5134
g4
tp5135
Rp5136
(I1
(I2
tp5137
g11
I00
(lp5138
S'hedon'
p5139
aNatp5140
bag1
(g2
(I0
tp5141
g4
tp5142
Rp5143
(I1
(I2
tp5144
g11
I00
(lp5145
S'pacif'
p5146
aNatp5147
bag1
(g2
(I0
tp5148
g4
tp5149
Rp5150
(I1
(I2
tp5151
g11
I00
(lp5152
S'engend'
p5153
aNatp5154
bag1
(g2
(I0
tp5155
g4
tp5156
Rp5157
(I1
(I2
tp5158
g11
I00
(lp5159
S'enlarg'
p5160
aNatp5161
bag1
(g2
(I0
tp5162
g4
tp5163
Rp5164
(I1
(I2
tp5165
g11
I00
(lp5166
S'imperman'
p5167
aNatp5168
bag1
(g2
(I0
tp5169
g4
tp5170
Rp5171
(I1
(I2
tp5172
g11
I00
(lp5173
S'nightlif'
p5174
aNatp5175
bag1
(g2
(I0
tp5176
g4
tp5177
Rp5178
(I1
(I2
tp5179
g11
I00
(lp5180
S'alkalin'
p5181
aNatp5182
bag1
(g2
(I0
tp5183
g4
tp5184
Rp5185
(I1
(I2
tp5186
g11
I00
(lp5187
S'puls'
p5188
aNatp5189
bag1
(g2
(I0
tp5190
g4
tp5191
Rp5192
(I1
(I2
tp5193
g11
I00
(lp5194
S'hypothet'
p5195
aNatp5196
bag1
(g2
(I0
tp5197
g4
tp5198
Rp5199
(I1
(I2
tp5200
g11
I00
(lp5201
S'Pavlensky'
p5202
aNatp5203
bag1
(g2
(I0
tp5204
g4
tp5205
Rp5206
(I1
(I2
tp5207
g11
I00
(lp5208
S'Glasss'
p5209
aNatp5210
bag1
(g2
(I0
tp5211
g4
tp5212
Rp5213
(I1
(I2
tp5214
g11
I00
(lp5215
S'Sippels'
p5216
aNatp5217
bag1
(g2
(I0
tp5218
g4
tp5219
Rp5220
(I1
(I2
tp5221
g11
I00
(lp5222
S'cybercrim'
p5223
aNatp5224
bag1
(g2
(I0
tp5225
g4
tp5226
Rp5227
(I1
(I2
tp5228
g11
I00
(lp5229
S'quixot'
p5230
aNatp5231
bag1
(g2
(I0
tp5232
g4
tp5233
Rp5234
(I1
(I2
tp5235
g11
I00
(lp5236
S'honeybe'
p5237
aNatp5238
bag1
(g2
(I0
tp5239
g4
tp5240
Rp5241
(I1
(I2
tp5242
g11
I00
(lp5243
S'aborigin'
p5244
aNatp5245
bag1
(g2
(I0
tp5246
g4
tp5247
Rp5248
(I1
(I2
tp5249
g11
I00
(lp5250
S'unaccustom'
p5251
aNatp5252
bag1
(g2
(I0
tp5253
g4
tp5254
Rp5255
(I1
(I2
tp5256
g11
I00
(lp5257
S'Shingrix'
p5258
aNatp5259
bag1
(g2
(I0
tp5260
g4
tp5261
Rp5262
(I1
(I2
tp5263
g11
I00
(lp5264
S'explet'
p5265
aNatp5266
bag1
(g2
(I0
tp5267
g4
tp5268
Rp5269
(I1
(I2
tp5270
g11
I00
(lp5271
S'Alibabacom'
p5272
aNatp5273
bag1
(g2
(I0
tp5274
g4
tp5275
Rp5276
(I1
(I2
tp5277
g11
I00
(lp5278
S'cowardic'
p5279
aNatp5280
bag1
(g2
(I0
tp5281
g4
tp5282
Rp5283
(I1
(I2
tp5284
g11
I00
(lp5285
S'biotechnolog'
p5286
aNatp5287
bag1
(g2
(I0
tp5288
g4
tp5289
Rp5290
(I1
(I2
tp5291
g11
I00
(lp5292
S'Chirlane'
p5293
aNatp5294
bag1
(g2
(I0
tp5295
g4
tp5296
Rp5297
(I1
(I2
tp5298
g11
I00
(lp5299
S'Galchen'
p5300
aNatp5301
bag1
(g2
(I0
tp5302
g4
tp5303
Rp5304
(I1
(I2
tp5305
g11
I00
(lp5306
S'sandston'
p5307
aNatp5308
bag1
(g2
(I0
tp5309
g4
tp5310
Rp5311
(I1
(I2
tp5312
g11
I00
(lp5313
S'kompromat'
p5314
aNatp5315
bag1
(g2
(I0
tp5316
g4
tp5317
Rp5318
(I1
(I2
tp5319
g11
I00
(lp5320
S'82717'
p5321
aNatp5322
bag1
(g2
(I0
tp5323
g4
tp5324
Rp5325
(I1
(I2
tp5326
g11
I00
(lp5327
S'Orbeso'
p5328
aNatp5329
bag1
(g2
(I0
tp5330
g4
tp5331
Rp5332
(I1
(I2
tp5333
g11
I00
(lp5334
S'recurr'
p5335
aNatp5336
bag1
(g2
(I0
tp5337
g4
tp5338
Rp5339
(I1
(I2
tp5340
g11
I00
(lp5341
S'hourli'
p5342
aNatp5343
bag1
(g2
(I0
tp5344
g4
tp5345
Rp5346
(I1
(I2
tp5347
g11
I00
(lp5348
S'strictur'
p5349
aNatp5350
bag1
(g2
(I0
tp5351
g4
tp5352
Rp5353
(I1
(I2
tp5354
g11
I00
(lp5355
S'Chainz'
p5356
aNatp5357
bag1
(g2
(I0
tp5358
g4
tp5359
Rp5360
(I1
(I2
tp5361
g11
I00
(lp5362
S'disingenu'
p5363
aNatp5364
bag1
(g2
(I0
tp5365
g4
tp5366
Rp5367
(I1
(I2
tp5368
g11
I00
(lp5369
S'ellipt'
p5370
aNatp5371
bag1
(g2
(I0
tp5372
g4
tp5373
Rp5374
(I1
(I2
tp5375
g11
I00
(lp5376
S'birthrat'
p5377
aNatp5378
bag1
(g2
(I0
tp5379
g4
tp5380
Rp5381
(I1
(I2
tp5382
g11
I00
(lp5383
S'Amlen'
p5384
aNatp5385
bag1
(g2
(I0
tp5386
g4
tp5387
Rp5388
(I1
(I2
tp5389
g11
I00
(lp5390
S'247'
p5391
aNatp5392
bag1
(g2
(I0
tp5393
g4
tp5394
Rp5395
(I1
(I2
tp5396
g11
I00
(lp5397
S'disburs'
p5398
aNatp5399
bag1
(g2
(I0
tp5400
g4
tp5401
Rp5402
(I1
(I2
tp5403
g11
I00
(lp5404
S'Roussaux'
p5405
aNatp5406
bag1
(g2
(I0
tp5407
g4
tp5408
Rp5409
(I1
(I2
tp5410
g11
I00
(lp5411
S'quantifi'
p5412
aNatp5413
bag1
(g2
(I0
tp5414
g4
tp5415
Rp5416
(I1
(I2
tp5417
g11
I00
(lp5418
S'Phillipss'
p5419
aNatp5420
bag1
(g2
(I0
tp5421
g4
tp5422
Rp5423
(I1
(I2
tp5424
g11
I00
(lp5425
S'Frenchs'
p5426
aNatp5427
bag1
(g2
(I0
tp5428
g4
tp5429
Rp5430
(I1
(I2
tp5431
g11
I00
(lp5432
S'cobbl'
p5433
aNatp5434
bag1
(g2
(I0
tp5435
g4
tp5436
Rp5437
(I1
(I2
tp5438
g11
I00
(lp5439
S'Paltrows'
p5440
aNatp5441
bag1
(g2
(I0
tp5442
g4
tp5443
Rp5444
(I1
(I2
tp5445
g11
I00
(lp5446
S'arguabl'
p5447
aNatp5448
bag1
(g2
(I0
tp5449
g4
tp5450
Rp5451
(I1
(I2
tp5452
g11
I00
(lp5453
S'quantit'
p5454
aNatp5455
bag1
(g2
(I0
tp5456
g4
tp5457
Rp5458
(I1
(I2
tp5459
g11
I00
(lp5460
S'isotop'
p5461
aNatp5462
bag1
(g2
(I0
tp5463
g4
tp5464
Rp5465
(I1
(I2
tp5466
g11
I00
(lp5467
S'desd'
p5468
aNatp5469
bag1
(g2
(I0
tp5470
g4
tp5471
Rp5472
(I1
(I2
tp5473
g11
I00
(lp5474
S'Ottawas'
p5475
aNatp5476
bag1
(g2
(I0
tp5477
g4
tp5478
Rp5479
(I1
(I2
tp5480
g11
I00
(lp5481
S'Hamburgs'
p5482
aNatp5483
bag1
(g2
(I0
tp5484
g4
tp5485
Rp5486
(I1
(I2
tp5487
g11
I00
(lp5488
S'sunshin'
p5489
aNatp5490
bag1
(g2
(I0
tp5491
g4
tp5492
Rp5493
(I1
(I2
tp5494
g11
I00
(lp5495
S'neurolog'
p5496
aNatp5497
bag1
(g2
(I0
tp5498
g4
tp5499
Rp5500
(I1
(I2
tp5501
g11
I00
(lp5502
S'Mfoniso'
p5503
aNatp5504
bag1
(g2
(I0
tp5505
g4
tp5506
Rp5507
(I1
(I2
tp5508
g11
I00
(lp5509
S'Subotnicks'
p5510
aNatp5511
bag1
(g2
(I0
tp5512
g4
tp5513
Rp5514
(I1
(I2
tp5515
g11
I00
(lp5516
S'distinctli'
p5517
aNatp5518
bag1
(g2
(I0
tp5519
g4
tp5520
Rp5521
(I1
(I2
tp5522
g11
I00
(lp5523
S'sociabl'
p5524
aNatp5525
bag1
(g2
(I0
tp5526
g4
tp5527
Rp5528
(I1
(I2
tp5529
g11
I00
(lp5530
S'145th'
p5531
aNatp5532
bag1
(g2
(I0
tp5533
g4
tp5534
Rp5535
(I1
(I2
tp5536
g11
I00
(lp5537
S'Lipmans'
p5538
aNatp5539
bag1
(g2
(I0
tp5540
g4
tp5541
Rp5542
(I1
(I2
tp5543
g11
I00
(lp5544
S'roadi'
p5545
aNatp5546
bag1
(g2
(I0
tp5547
g4
tp5548
Rp5549
(I1
(I2
tp5550
g11
I00
(lp5551
S'steadfastli'
p5552
aNatp5553
bag1
(g2
(I0
tp5554
g4
tp5555
Rp5556
(I1
(I2
tp5557
g11
I00
(lp5558
S'unreleas'
p5559
aNatp5560
bag1
(g2
(I0
tp5561
g4
tp5562
Rp5563
(I1
(I2
tp5564
g11
I00
(lp5565
S'McNallys'
p5566
aNatp5567
bag1
(g2
(I0
tp5568
g4
tp5569
Rp5570
(I1
(I2
tp5571
g11
I00
(lp5572
S'Mabanckous'
p5573
aNatp5574
bag1
(g2
(I0
tp5575
g4
tp5576
Rp5577
(I1
(I2
tp5578
g11
I00
(lp5579
S'Chongyi'
p5580
aNatp5581
bag1
(g2
(I0
tp5582
g4
tp5583
Rp5584
(I1
(I2
tp5585
g11
I00
(lp5586
S'nuditi'
p5587
aNatp5588
bag1
(g2
(I0
tp5589
g4
tp5590
Rp5591
(I1
(I2
tp5592
g11
I00
(lp5593
S'Sobrante'
p5594
aNatp5595
bag1
(g2
(I0
tp5596
g4
tp5597
Rp5598
(I1
(I2
tp5599
g11
I00
(lp5600
S'eyewit'
p5601
aNatp5602
bag1
(g2
(I0
tp5603
g4
tp5604
Rp5605
(I1
(I2
tp5606
g11
I00
(lp5607
S'Serras'
p5608
aNatp5609
bag1
(g2
(I0
tp5610
g4
tp5611
Rp5612
(I1
(I2
tp5613
g11
I00
(lp5614
S'herit'
p5615
aNatp5616
bag1
(g2
(I0
tp5617
g4
tp5618
Rp5619
(I1
(I2
tp5620
g11
I00
(lp5621
S'Sukle'
p5622
aNatp5623
bag1
(g2
(I0
tp5624
g4
tp5625
Rp5626
(I1
(I2
tp5627
g11
I00
(lp5628
S'bloodlin'
p5629
aNatp5630
bag1
(g2
(I0
tp5631
g4
tp5632
Rp5633
(I1
(I2
tp5634
g11
I00
(lp5635
S'Brittens'
p5636
aNatp5637
bag1
(g2
(I0
tp5638
g4
tp5639
Rp5640
(I1
(I2
tp5641
g11
I00
(lp5642
S'extramarit'
p5643
aNatp5644
bag1
(g2
(I0
tp5645
g4
tp5646
Rp5647
(I1
(I2
tp5648
g11
I00
(lp5649
S'Fethullah'
p5650
aNatp5651
bag1
(g2
(I0
tp5652
g4
tp5653
Rp5654
(I1
(I2
tp5655
g11
I00
(lp5656
S'verif'
p5657
aNatp5658
bag1
(g2
(I0
tp5659
g4
tp5660
Rp5661
(I1
(I2
tp5662
g11
I00
(lp5663
S'preferenti'
p5664
aNatp5665
bag1
(g2
(I0
tp5666
g4
tp5667
Rp5668
(I1
(I2
tp5669
g11
I00
(lp5670
S'unpolish'
p5671
aNatp5672
bag1
(g2
(I0
tp5673
g4
tp5674
Rp5675
(I1
(I2
tp5676
g11
I00
(lp5677
S'25-point'
p5678
aNatp5679
bag1
(g2
(I0
tp5680
g4
tp5681
Rp5682
(I1
(I2
tp5683
g11
I00
(lp5684
S'Hwangs'
p5685
aNatp5686
bag1
(g2
(I0
tp5687
g4
tp5688
Rp5689
(I1
(I2
tp5690
g11
I00
(lp5691
S'peacetim'
p5692
aNatp5693
bag1
(g2
(I0
tp5694
g4
tp5695
Rp5696
(I1
(I2
tp5697
g11
I00
(lp5698
S'dealmak'
p5699
aNatp5700
bag1
(g2
(I0
tp5701
g4
tp5702
Rp5703
(I1
(I2
tp5704
g11
I00
(lp5705
S'tantal'
p5706
aNatp5707
bag1
(g2
(I0
tp5708
g4
tp5709
Rp5710
(I1
(I2
tp5711
g11
I00
(lp5712
S'Okpokwasili'
p5713
aNatp5714
bag1
(g2
(I0
tp5715
g4
tp5716
Rp5717
(I1
(I2
tp5718
g11
I00
(lp5719
S'Guajataca'
p5720
aNatp5721
bag1
(g2
(I0
tp5722
g4
tp5723
Rp5724
(I1
(I2
tp5725
g11
I00
(lp5726
S'Shekhtman'
p5727
aNatp5728
bag1
(g2
(I0
tp5729
g4
tp5730
Rp5731
(I1
(I2
tp5732
g11
I00
(lp5733
S'haggl'
p5734
aNatp5735
bag1
(g2
(I0
tp5736
g4
tp5737
Rp5738
(I1
(I2
tp5739
g11
I00
(lp5740
S'aptitud'
p5741
aNatp5742
bag1
(g2
(I0
tp5743
g4
tp5744
Rp5745
(I1
(I2
tp5746
g11
I00
(lp5747
S'Mezcaleria'
p5748
aNatp5749
bag1
(g2
(I0
tp5750
g4
tp5751
Rp5752
(I1
(I2
tp5753
g11
I00
(lp5754
S'Waymos'
p5755
aNatp5756
bag1
(g2
(I0
tp5757
g4
tp5758
Rp5759
(I1
(I2
tp5760
g11
I00
(lp5761
S'spatchcock'
p5762
aNatp5763
bag1
(g2
(I0
tp5764
g4
tp5765
Rp5766
(I1
(I2
tp5767
g11
I00
(lp5768
S'sapien'
p5769
aNatp5770
bag1
(g2
(I0
tp5771
g4
tp5772
Rp5773
(I1
(I2
tp5774
g11
I00
(lp5775
S'52117'
p5776
aNatp5777
bag1
(g2
(I0
tp5778
g4
tp5779
Rp5780
(I1
(I2
tp5781
g11
I00
(lp5782
S'autoimmun'
p5783
aNatp5784
bag1
(g2
(I0
tp5785
g4
tp5786
Rp5787
(I1
(I2
tp5788
g11
I00
(lp5789
S'\xe2\x80\x9c24-Decade'
p5790
aNatp5791
bag1
(g2
(I0
tp5792
g4
tp5793
Rp5794
(I1
(I2
tp5795
g11
I00
(lp5796
S'Xiyue'
p5797
aNatp5798
bag1
(g2
(I0
tp5799
g4
tp5800
Rp5801
(I1
(I2
tp5802
g11
I00
(lp5803
S'taxat'
p5804
aNatp5805
bag1
(g2
(I0
tp5806
g4
tp5807
Rp5808
(I1
(I2
tp5809
g11
I00
(lp5810
S'Berengo'
p5811
aNatp5812
bag1
(g2
(I0
tp5813
g4
tp5814
Rp5815
(I1
(I2
tp5816
g11
I00
(lp5817
S'leprosi'
p5818
aNatp5819
bag1
(g2
(I0
tp5820
g4
tp5821
Rp5822
(I1
(I2
tp5823
g11
I00
(lp5824
S'artific'
p5825
aNatp5826
bag1
(g2
(I0
tp5827
g4
tp5828
Rp5829
(I1
(I2
tp5830
g11
I00
(lp5831
S'Hernangomez'
p5832
aNatp5833
bag1
(g2
(I0
tp5834
g4
tp5835
Rp5836
(I1
(I2
tp5837
g11
I00
(lp5838
S'rosemari'
p5839
aNatp5840
bag1
(g2
(I0
tp5841
g4
tp5842
Rp5843
(I1
(I2
tp5844
g11
I00
(lp5845
S'overconfid'
p5846
aNatp5847
bag1
(g2
(I0
tp5848
g4
tp5849
Rp5850
(I1
(I2
tp5851
g11
I00
(lp5852
S'Florebert'
p5853
aNatp5854
bag1
(g2
(I0
tp5855
g4
tp5856
Rp5857
(I1
(I2
tp5858
g11
I00
(lp5859
S'fearmong'
p5860
aNatp5861
bag1
(g2
(I0
tp5862
g4
tp5863
Rp5864
(I1
(I2
tp5865
g11
I00
(lp5866
S'wherea'
p5867
aNatp5868
bag1
(g2
(I0
tp5869
g4
tp5870
Rp5871
(I1
(I2
tp5872
g11
I00
(lp5873
S'216'
p5874
aNatp5875
bag1
(g2
(I0
tp5876
g4
tp5877
Rp5878
(I1
(I2
tp5879
g11
I00
(lp5880
S'bankrol'
p5881
aNatp5882
bag1
(g2
(I0
tp5883
g4
tp5884
Rp5885
(I1
(I2
tp5886
g11
I00
(lp5887
S'215'
p5888
aNatp5889
bag1
(g2
(I0
tp5890
g4
tp5891
Rp5892
(I1
(I2
tp5893
g11
I00
(lp5894
S'malpractic'
p5895
aNatp5896
bag1
(g2
(I0
tp5897
g4
tp5898
Rp5899
(I1
(I2
tp5900
g11
I00
(lp5901
S'Boyega'
p5902
aNatp5903
bag1
(g2
(I0
tp5904
g4
tp5905
Rp5906
(I1
(I2
tp5907
g11
I00
(lp5908
S'125th'
p5909
aNatp5910
bag1
(g2
(I0
tp5911
g4
tp5912
Rp5913
(I1
(I2
tp5914
g11
I00
(lp5915
S'Thodoris'
p5916
aNatp5917
bag1
(g2
(I0
tp5918
g4
tp5919
Rp5920
(I1
(I2
tp5921
g11
I00
(lp5922
S'Barenholtz'
p5923
aNatp5924
bag1
(g2
(I0
tp5925
g4
tp5926
Rp5927
(I1
(I2
tp5928
g11
I00
(lp5929
S'Issey'
p5930
aNatp5931
bag1
(g2
(I0
tp5932
g4
tp5933
Rp5934
(I1
(I2
tp5935
g11
I00
(lp5936
S'Kalfars'
p5937
aNatp5938
bag1
(g2
(I0
tp5939
g4
tp5940
Rp5941
(I1
(I2
tp5942
g11
I00
(lp5943
S'blasphem'
p5944
aNatp5945
bag1
(g2
(I0
tp5946
g4
tp5947
Rp5948
(I1
(I2
tp5949
g11
I00
(lp5950
S'24-27'
p5951
aNatp5952
bag1
(g2
(I0
tp5953
g4
tp5954
Rp5955
(I1
(I2
tp5956
g11
I00
(lp5957
S'Kenneka'
p5958
aNatp5959
bag1
(g2
(I0
tp5960
g4
tp5961
Rp5962
(I1
(I2
tp5963
g11
I00
(lp5964
S'sleev'
p5965
aNatp5966
bag1
(g2
(I0
tp5967
g4
tp5968
Rp5969
(I1
(I2
tp5970
g11
I00
(lp5971
S'12-foot'
p5972
aNatp5973
bag1
(g2
(I0
tp5974
g4
tp5975
Rp5976
(I1
(I2
tp5977
g11
I00
(lp5978
S'111'
p5979
aNatp5980
bag1
(g2
(I0
tp5981
g4
tp5982
Rp5983
(I1
(I2
tp5984
g11
I00
(lp5985
S'accru'
p5986
aNatp5987
bag1
(g2
(I0
tp5988
g4
tp5989
Rp5990
(I1
(I2
tp5991
g11
I00
(lp5992
S'migrain'
p5993
aNatp5994
bag1
(g2
(I0
tp5995
g4
tp5996
Rp5997
(I1
(I2
tp5998
g11
I00
(lp5999
S'Huangs'
p6000
aNatp6001
bag1
(g2
(I0
tp6002
g4
tp6003
Rp6004
(I1
(I2
tp6005
g11
I00
(lp6006
S'Cuypers'
p6007
aNatp6008
bag1
(g2
(I0
tp6009
g4
tp6010
Rp6011
(I1
(I2
tp6012
g11
I00
(lp6013
S'concis'
p6014
aNatp6015
bag1
(g2
(I0
tp6016
g4
tp6017
Rp6018
(I1
(I2
tp6019
g11
I00
(lp6020
S'litmu'
p6021
aNatp6022
bag1
(g2
(I0
tp6023
g4
tp6024
Rp6025
(I1
(I2
tp6026
g11
I00
(lp6027
S'Hudlins'
p6028
aNatp6029
bag1
(g2
(I0
tp6030
g4
tp6031
Rp6032
(I1
(I2
tp6033
g11
I00
(lp6034
S'nowaday'
p6035
aNatp6036
bag1
(g2
(I0
tp6037
g4
tp6038
Rp6039
(I1
(I2
tp6040
g11
I00
(lp6041
S'Meuron'
p6042
aNatp6043
bag1
(g2
(I0
tp6044
g4
tp6045
Rp6046
(I1
(I2
tp6047
g11
I00
(lp6048
S'Starboy'
p6049
aNatp6050
bag1
(g2
(I0
tp6051
g4
tp6052
Rp6053
(I1
(I2
tp6054
g11
I00
(lp6055
S'1780'
p6056
aNatp6057
bag1
(g2
(I0
tp6058
g4
tp6059
Rp6060
(I1
(I2
tp6061
g11
I00
(lp6062
S'Prieta'
p6063
aNatp6064
bag1
(g2
(I0
tp6065
g4
tp6066
Rp6067
(I1
(I2
tp6068
g11
I00
(lp6069
S'MacMillans'
p6070
aNatp6071
bag1
(g2
(I0
tp6072
g4
tp6073
Rp6074
(I1
(I2
tp6075
g11
I00
(lp6076
S'Yalkin'
p6077
aNatp6078
bag1
(g2
(I0
tp6079
g4
tp6080
Rp6081
(I1
(I2
tp6082
g11
I00
(lp6083
S'bilingu'
p6084
aNatp6085
bag1
(g2
(I0
tp6086
g4
tp6087
Rp6088
(I1
(I2
tp6089
g11
I00
(lp6090
S'veng'
p6091
aNatp6092
bag1
(g2
(I0
tp6093
g4
tp6094
Rp6095
(I1
(I2
tp6096
g11
I00
(lp6097
S'Rodchenkov'
p6098
aNatp6099
bag1
(g2
(I0
tp6100
g4
tp6101
Rp6102
(I1
(I2
tp6103
g11
I00
(lp6104
S'McPhees'
p6105
aNatp6106
bag1
(g2
(I0
tp6107
g4
tp6108
Rp6109
(I1
(I2
tp6110
g11
I00
(lp6111
S'groupi'
p6112
aNatp6113
bag1
(g2
(I0
tp6114
g4
tp6115
Rp6116
(I1
(I2
tp6117
g11
I00
(lp6118
S'Schoenbergs'
p6119
aNatp6120
bag1
(g2
(I0
tp6121
g4
tp6122
Rp6123
(I1
(I2
tp6124
g11
I00
(lp6125
S'228000'
p6126
aNatp6127
bag1
(g2
(I0
tp6128
g4
tp6129
Rp6130
(I1
(I2
tp6131
g11
I00
(lp6132
S'reverenti'
p6133
aNatp6134
bag1
(g2
(I0
tp6135
g4
tp6136
Rp6137
(I1
(I2
tp6138
g11
I00
(lp6139
S'rejoind'
p6140
aNatp6141
bag1
(g2
(I0
tp6142
g4
tp6143
Rp6144
(I1
(I2
tp6145
g11
I00
(lp6146
S'imbu'
p6147
aNatp6148
bag1
(g2
(I0
tp6149
g4
tp6150
Rp6151
(I1
(I2
tp6152
g11
I00
(lp6153
S'lifelik'
p6154
aNatp6155
bag1
(g2
(I0
tp6156
g4
tp6157
Rp6158
(I1
(I2
tp6159
g11
I00
(lp6160
S'228'
p6161
aNatp6162
bag1
(g2
(I0
tp6163
g4
tp6164
Rp6165
(I1
(I2
tp6166
g11
I00
(lp6167
S'bumbl'
p6168
aNatp6169
bag1
(g2
(I0
tp6170
g4
tp6171
Rp6172
(I1
(I2
tp6173
g11
I00
(lp6174
S'tribul'
p6175
aNatp6176
bag1
(g2
(I0
tp6177
g4
tp6178
Rp6179
(I1
(I2
tp6180
g11
I00
(lp6181
S'crosscurr'
p6182
aNatp6183
bag1
(g2
(I0
tp6184
g4
tp6185
Rp6186
(I1
(I2
tp6187
g11
I00
(lp6188
S'Schraders'
p6189
aNatp6190
bag1
(g2
(I0
tp6191
g4
tp6192
Rp6193
(I1
(I2
tp6194
g11
I00
(lp6195
S'Marlings'
p6196
aNatp6197
bag1
(g2
(I0
tp6198
g4
tp6199
Rp6200
(I1
(I2
tp6201
g11
I00
(lp6202
S'summar'
p6203
aNatp6204
bag1
(g2
(I0
tp6205
g4
tp6206
Rp6207
(I1
(I2
tp6208
g11
I00
(lp6209
S'Emigre'
p6210
aNatp6211
bag1
(g2
(I0
tp6212
g4
tp6213
Rp6214
(I1
(I2
tp6215
g11
I00
(lp6216
S'220'
p6217
aNatp6218
bag1
(g2
(I0
tp6219
g4
tp6220
Rp6221
(I1
(I2
tp6222
g11
I00
(lp6223
S'ammunit'
p6224
aNatp6225
bag1
(g2
(I0
tp6226
g4
tp6227
Rp6228
(I1
(I2
tp6229
g11
I00
(lp6230
S'lemonad'
p6231
aNatp6232
bag1
(g2
(I0
tp6233
g4
tp6234
Rp6235
(I1
(I2
tp6236
g11
I00
(lp6237
S'trendsett'
p6238
aNatp6239
bag1
(g2
(I0
tp6240
g4
tp6241
Rp6242
(I1
(I2
tp6243
g11
I00
(lp6244
S'Artemenko'
p6245
aNatp6246
bag1
(g2
(I0
tp6247
g4
tp6248
Rp6249
(I1
(I2
tp6250
g11
I00
(lp6251
S'Unwomanly'
p6252
aNatp6253
bag1
(g2
(I0
tp6254
g4
tp6255
Rp6256
(I1
(I2
tp6257
g11
I00
(lp6258
S'Sambucci'
p6259
aNatp6260
bag1
(g2
(I0
tp6261
g4
tp6262
Rp6263
(I1
(I2
tp6264
g11
I00
(lp6265
S'Waccabuc'
p6266
aNatp6267
bag1
(g2
(I0
tp6268
g4
tp6269
Rp6270
(I1
(I2
tp6271
g11
I00
(lp6272
S'Melenchons'
p6273
aNatp6274
bag1
(g2
(I0
tp6275
g4
tp6276
Rp6277
(I1
(I2
tp6278
g11
I00
(lp6279
S'Vizguerra'
p6280
aNatp6281
bag1
(g2
(I0
tp6282
g4
tp6283
Rp6284
(I1
(I2
tp6285
g11
I00
(lp6286
S'465'
p6287
aNatp6288
bag1
(g2
(I0
tp6289
g4
tp6290
Rp6291
(I1
(I2
tp6292
g11
I00
(lp6293
S'Alexievichs'
p6294
aNatp6295
bag1
(g2
(I0
tp6296
g4
tp6297
Rp6298
(I1
(I2
tp6299
g11
I00
(lp6300
S'gravita'
p6301
aNatp6302
bag1
(g2
(I0
tp6303
g4
tp6304
Rp6305
(I1
(I2
tp6306
g11
I00
(lp6307
S'Prattes'
p6308
aNatp6309
bag1
(g2
(I0
tp6310
g4
tp6311
Rp6312
(I1
(I2
tp6313
g11
I00
(lp6314
S'blindli'
p6315
aNatp6316
bag1
(g2
(I0
tp6317
g4
tp6318
Rp6319
(I1
(I2
tp6320
g11
I00
(lp6321
S'41st'
p6322
aNatp6323
bag1
(g2
(I0
tp6324
g4
tp6325
Rp6326
(I1
(I2
tp6327
g11
I00
(lp6328
S'13-month'
p6329
aNatp6330
bag1
(g2
(I0
tp6331
g4
tp6332
Rp6333
(I1
(I2
tp6334
g11
I00
(lp6335
S'Desiigner'
p6336
aNatp6337
bag1
(g2
(I0
tp6338
g4
tp6339
Rp6340
(I1
(I2
tp6341
g11
I00
(lp6342
S'Tirpitz'
p6343
aNatp6344
bag1
(g2
(I0
tp6345
g4
tp6346
Rp6347
(I1
(I2
tp6348
g11
I00
(lp6349
S'reunif'
p6350
aNatp6351
bag1
(g2
(I0
tp6352
g4
tp6353
Rp6354
(I1
(I2
tp6355
g11
I00
(lp6356
S'roomi'
p6357
aNatp6358
bag1
(g2
(I0
tp6359
g4
tp6360
Rp6361
(I1
(I2
tp6362
g11
I00
(lp6363
S'Zenders'
p6364
aNatp6365
bag1
(g2
(I0
tp6366
g4
tp6367
Rp6368
(I1
(I2
tp6369
g11
I00
(lp6370
S'feisti'
p6371
aNatp6372
bag1
(g2
(I0
tp6373
g4
tp6374
Rp6375
(I1
(I2
tp6376
g11
I00
(lp6377
S'contriv'
p6378
aNatp6379
bag1
(g2
(I0
tp6380
g4
tp6381
Rp6382
(I1
(I2
tp6383
g11
I00
(lp6384
S'straphang'
p6385
aNatp6386
bag1
(g2
(I0
tp6387
g4
tp6388
Rp6389
(I1
(I2
tp6390
g11
I00
(lp6391
S'emolu'
p6392
aNatp6393
bag1
(g2
(I0
tp6394
g4
tp6395
Rp6396
(I1
(I2
tp6397
g11
I00
(lp6398
S'Soderberghs'
p6399
aNatp6400
bag1
(g2
(I0
tp6401
g4
tp6402
Rp6403
(I1
(I2
tp6404
g11
I00
(lp6405
S'unadorn'
p6406
aNatp6407
bag1
(g2
(I0
tp6408
g4
tp6409
Rp6410
(I1
(I2
tp6411
g11
I00
(lp6412
S'Graswald'
p6413
aNatp6414
bag1
(g2
(I0
tp6415
g4
tp6416
Rp6417
(I1
(I2
tp6418
g11
I00
(lp6419
S'Amirpour'
p6420
aNatp6421
bag1
(g2
(I0
tp6422
g4
tp6423
Rp6424
(I1
(I2
tp6425
g11
I00
(lp6426
S'149th'
p6427
aNatp6428
bag1
(g2
(I0
tp6429
g4
tp6430
Rp6431
(I1
(I2
tp6432
g11
I00
(lp6433
S'Ezerskys'
p6434
aNatp6435
bag1
(g2
(I0
tp6436
g4
tp6437
Rp6438
(I1
(I2
tp6439
g11
I00
(lp6440
S'vignett'
p6441
aNatp6442
bag1
(g2
(I0
tp6443
g4
tp6444
Rp6445
(I1
(I2
tp6446
g11
I00
(lp6447
S'Arunanondchais'
p6448
aNatp6449
bag1
(g2
(I0
tp6450
g4
tp6451
Rp6452
(I1
(I2
tp6453
g11
I00
(lp6454
S'Jojutla'
p6455
aNatp6456
bag1
(g2
(I0
tp6457
g4
tp6458
Rp6459
(I1
(I2
tp6460
g11
I00
(lp6461
S'Ansels'
p6462
aNatp6463
bag1
(g2
(I0
tp6464
g4
tp6465
Rp6466
(I1
(I2
tp6467
g11
I00
(lp6468
S'Zarrabs'
p6469
aNatp6470
bag1
(g2
(I0
tp6471
g4
tp6472
Rp6473
(I1
(I2
tp6474
g11
I00
(lp6475
S'cranki'
p6476
aNatp6477
bag1
(g2
(I0
tp6478
g4
tp6479
Rp6480
(I1
(I2
tp6481
g11
I00
(lp6482
S'claustrophob'
p6483
aNatp6484
bag1
(g2
(I0
tp6485
g4
tp6486
Rp6487
(I1
(I2
tp6488
g11
I00
(lp6489
S'variabl'
p6490
aNatp6491
bag1
(g2
(I0
tp6492
g4
tp6493
Rp6494
(I1
(I2
tp6495
g11
I00
(lp6496
S'Schenkkans'
p6497
aNatp6498
bag1
(g2
(I0
tp6499
g4
tp6500
Rp6501
(I1
(I2
tp6502
g11
I00
(lp6503
S'167'
p6504
aNatp6505
bag1
(g2
(I0
tp6506
g4
tp6507
Rp6508
(I1
(I2
tp6509
g11
I00
(lp6510
S'Azuero'
p6511
aNatp6512
bag1
(g2
(I0
tp6513
g4
tp6514
Rp6515
(I1
(I2
tp6516
g11
I00
(lp6517
S'Guirgiss'
p6518
aNatp6519
bag1
(g2
(I0
tp6520
g4
tp6521
Rp6522
(I1
(I2
tp6523
g11
I00
(lp6524
S'Brockmire'
p6525
aNatp6526
bag1
(g2
(I0
tp6527
g4
tp6528
Rp6529
(I1
(I2
tp6530
g11
I00
(lp6531
S'levit'
p6532
aNatp6533
bag1
(g2
(I0
tp6534
g4
tp6535
Rp6536
(I1
(I2
tp6537
g11
I00
(lp6538
S'refut'
p6539
aNatp6540
bag1
(g2
(I0
tp6541
g4
tp6542
Rp6543
(I1
(I2
tp6544
g11
I00
(lp6545
S'115'
p6546
aNatp6547
bag1
(g2
(I0
tp6548
g4
tp6549
Rp6550
(I1
(I2
tp6551
g11
I00
(lp6552
S'deGrass'
p6553
aNatp6554
bag1
(g2
(I0
tp6555
g4
tp6556
Rp6557
(I1
(I2
tp6558
g11
I00
(lp6559
S'Coltranes'
p6560
aNatp6561
bag1
(g2
(I0
tp6562
g4
tp6563
Rp6564
(I1
(I2
tp6565
g11
I00
(lp6566
S'cryptocurr'
p6567
aNatp6568
bag1
(g2
(I0
tp6569
g4
tp6570
Rp6571
(I1
(I2
tp6572
g11
I00
(lp6573
S'Hepburns'
p6574
aNatp6575
bag1
(g2
(I0
tp6576
g4
tp6577
Rp6578
(I1
(I2
tp6579
g11
I00
(lp6580
S'acolyt'
p6581
aNatp6582
bag1
(g2
(I0
tp6583
g4
tp6584
Rp6585
(I1
(I2
tp6586
g11
I00
(lp6587
S'Kamoinge'
p6588
aNatp6589
bag1
(g2
(I0
tp6590
g4
tp6591
Rp6592
(I1
(I2
tp6593
g11
I00
(lp6594
S'Moshfegh'
p6595
aNatp6596
bag1
(g2
(I0
tp6597
g4
tp6598
Rp6599
(I1
(I2
tp6600
g11
I00
(lp6601
S'inimit'
p6602
aNatp6603
bag1
(g2
(I0
tp6604
g4
tp6605
Rp6606
(I1
(I2
tp6607
g11
I00
(lp6608
S'campi'
p6609
aNatp6610
bag1
(g2
(I0
tp6611
g4
tp6612
Rp6613
(I1
(I2
tp6614
g11
I00
(lp6615
S'bracingli'
p6616
aNatp6617
bag1
(g2
(I0
tp6618
g4
tp6619
Rp6620
(I1
(I2
tp6621
g11
I00
(lp6622
S'coyot'
p6623
aNatp6624
bag1
(g2
(I0
tp6625
g4
tp6626
Rp6627
(I1
(I2
tp6628
g11
I00
(lp6629
S'Eminems'
p6630
aNatp6631
bag1
(g2
(I0
tp6632
g4
tp6633
Rp6634
(I1
(I2
tp6635
g11
I00
(lp6636
S'Confounds'
p6637
aNatp6638
bag1
(g2
(I0
tp6639
g4
tp6640
Rp6641
(I1
(I2
tp6642
g11
I00
(lp6643
S'Xyza'
p6644
aNatp6645
bag1
(g2
(I0
tp6646
g4
tp6647
Rp6648
(I1
(I2
tp6649
g11
I00
(lp6650
S'rewir'
p6651
aNatp6652
bag1
(g2
(I0
tp6653
g4
tp6654
Rp6655
(I1
(I2
tp6656
g11
I00
(lp6657
S'Northwesterns'
p6658
aNatp6659
bag1
(g2
(I0
tp6660
g4
tp6661
Rp6662
(I1
(I2
tp6663
g11
I00
(lp6664
S'overshar'
p6665
aNatp6666
bag1
(g2
(I0
tp6667
g4
tp6668
Rp6669
(I1
(I2
tp6670
g11
I00
(lp6671
S'punctuat'
p6672
aNatp6673
bag1
(g2
(I0
tp6674
g4
tp6675
Rp6676
(I1
(I2
tp6677
g11
I00
(lp6678
S'heartach'
p6679
aNatp6680
bag1
(g2
(I0
tp6681
g4
tp6682
Rp6683
(I1
(I2
tp6684
g11
I00
(lp6685
S'hasti'
p6686
aNatp6687
bag1
(g2
(I0
tp6688
g4
tp6689
Rp6690
(I1
(I2
tp6691
g11
I00
(lp6692
S'AbuQir'
p6693
aNatp6694
bag1
(g2
(I0
tp6695
g4
tp6696
Rp6697
(I1
(I2
tp6698
g11
I00
(lp6699
S'trimest'
p6700
aNatp6701
bag1
(g2
(I0
tp6702
g4
tp6703
Rp6704
(I1
(I2
tp6705
g11
I00
(lp6706
S'Smullyan'
p6707
aNatp6708
bag1
(g2
(I0
tp6709
g4
tp6710
Rp6711
(I1
(I2
tp6712
g11
I00
(lp6713
S'freshli'
p6714
aNatp6715
bag1
(g2
(I0
tp6716
g4
tp6717
Rp6718
(I1
(I2
tp6719
g11
I00
(lp6720
S'Bozoma'
p6721
aNatp6722
bag1
(g2
(I0
tp6723
g4
tp6724
Rp6725
(I1
(I2
tp6726
g11
I00
(lp6727
S'Scavino'
p6728
aNatp6729
bag1
(g2
(I0
tp6730
g4
tp6731
Rp6732
(I1
(I2
tp6733
g11
I00
(lp6734
S'385'
p6735
aNatp6736
bag1
(g2
(I0
tp6737
g4
tp6738
Rp6739
(I1
(I2
tp6740
g11
I00
(lp6741
S'389'
p6742
aNatp6743
bag1
(g2
(I0
tp6744
g4
tp6745
Rp6746
(I1
(I2
tp6747
g11
I00
(lp6748
S'unsolicit'
p6749
aNatp6750
bag1
(g2
(I0
tp6751
g4
tp6752
Rp6753
(I1
(I2
tp6754
g11
I00
(lp6755
S'motorcad'
p6756
aNatp6757
bag1
(g2
(I0
tp6758
g4
tp6759
Rp6760
(I1
(I2
tp6761
g11
I00
(lp6762
S'mischaracter'
p6763
aNatp6764
bag1
(g2
(I0
tp6765
g4
tp6766
Rp6767
(I1
(I2
tp6768
g11
I00
(lp6769
S'Stupaks'
p6770
aNatp6771
bag1
(g2
(I0
tp6772
g4
tp6773
Rp6774
(I1
(I2
tp6775
g11
I00
(lp6776
S'unfund'
p6777
aNatp6778
bag1
(g2
(I0
tp6779
g4
tp6780
Rp6781
(I1
(I2
tp6782
g11
I00
(lp6783
S'07'
p6784
aNatp6785
bag1
(g2
(I0
tp6786
g4
tp6787
Rp6788
(I1
(I2
tp6789
g11
I00
(lp6790
S'03'
p6791
aNatp6792
bag1
(g2
(I0
tp6793
g4
tp6794
Rp6795
(I1
(I2
tp6796
g11
I00
(lp6797
S'Bhararas'
p6798
aNatp6799
bag1
(g2
(I0
tp6800
g4
tp6801
Rp6802
(I1
(I2
tp6803
g11
I00
(lp6804
S'Kavakos'
p6805
aNatp6806
bag1
(g2
(I0
tp6807
g4
tp6808
Rp6809
(I1
(I2
tp6810
g11
I00
(lp6811
S'corrobor'
p6812
aNatp6813
bag1
(g2
(I0
tp6814
g4
tp6815
Rp6816
(I1
(I2
tp6817
g11
I00
(lp6818
S'posthum'
p6819
aNatp6820
bag1
(g2
(I0
tp6821
g4
tp6822
Rp6823
(I1
(I2
tp6824
g11
I00
(lp6825
S'Castiles'
p6826
aNatp6827
bag1
(g2
(I0
tp6828
g4
tp6829
Rp6830
(I1
(I2
tp6831
g11
I00
(lp6832
S'28-3'
p6833
aNatp6834
bag1
(g2
(I0
tp6835
g4
tp6836
Rp6837
(I1
(I2
tp6838
g11
I00
(lp6839
S'surefir'
p6840
aNatp6841
bag1
(g2
(I0
tp6842
g4
tp6843
Rp6844
(I1
(I2
tp6845
g11
I00
(lp6846
S'Ceferin'
p6847
aNatp6848
bag1
(g2
(I0
tp6849
g4
tp6850
Rp6851
(I1
(I2
tp6852
g11
I00
(lp6853
S'perjuri'
p6854
aNatp6855
bag1
(g2
(I0
tp6856
g4
tp6857
Rp6858
(I1
(I2
tp6859
g11
I00
(lp6860
S'potag'
p6861
aNatp6862
bag1
(g2
(I0
tp6863
g4
tp6864
Rp6865
(I1
(I2
tp6866
g11
I00
(lp6867
S'critico'
p6868
aNatp6869
bag1
(g2
(I0
tp6870
g4
tp6871
Rp6872
(I1
(I2
tp6873
g11
I00
(lp6874
S'Icelands'
p6875
aNatp6876
bag1
(g2
(I0
tp6877
g4
tp6878
Rp6879
(I1
(I2
tp6880
g11
I00
(lp6881
S'Inclement'
p6882
aNatp6883
bag1
(g2
(I0
tp6884
g4
tp6885
Rp6886
(I1
(I2
tp6887
g11
I00
(lp6888
S'missiv'
p6889
aNatp6890
bag1
(g2
(I0
tp6891
g4
tp6892
Rp6893
(I1
(I2
tp6894
g11
I00
(lp6895
S'incept'
p6896
aNatp6897
bag1
(g2
(I0
tp6898
g4
tp6899
Rp6900
(I1
(I2
tp6901
g11
I00
(lp6902
S'hoteli'
p6903
aNatp6904
bag1
(g2
(I0
tp6905
g4
tp6906
Rp6907
(I1
(I2
tp6908
g11
I00
(lp6909
S'gustaria'
p6910
aNatp6911
bag1
(g2
(I0
tp6912
g4
tp6913
Rp6914
(I1
(I2
tp6915
g11
I00
(lp6916
S'neckti'
p6917
aNatp6918
bag1
(g2
(I0
tp6919
g4
tp6920
Rp6921
(I1
(I2
tp6922
g11
I00
(lp6923
S'Hashana'
p6924
aNatp6925
bag1
(g2
(I0
tp6926
g4
tp6927
Rp6928
(I1
(I2
tp6929
g11
I00
(lp6930
S'Slonems'
p6931
aNatp6932
bag1
(g2
(I0
tp6933
g4
tp6934
Rp6935
(I1
(I2
tp6936
g11
I00
(lp6937
S'sanitari'
p6938
aNatp6939
bag1
(g2
(I0
tp6940
g4
tp6941
Rp6942
(I1
(I2
tp6943
g11
I00
(lp6944
S'2017s'
p6945
aNatp6946
bag1
(g2
(I0
tp6947
g4
tp6948
Rp6949
(I1
(I2
tp6950
g11
I00
(lp6951
S'attun'
p6952
aNatp6953
bag1
(g2
(I0
tp6954
g4
tp6955
Rp6956
(I1
(I2
tp6957
g11
I00
(lp6958
S'foreclosur'
p6959
aNatp6960
bag1
(g2
(I0
tp6961
g4
tp6962
Rp6963
(I1
(I2
tp6964
g11
I00
(lp6965
S'Demilitarized'
p6966
aNatp6967
bag1
(g2
(I0
tp6968
g4
tp6969
Rp6970
(I1
(I2
tp6971
g11
I00
(lp6972
S'Mississippis'
p6973
aNatp6974
bag1
(g2
(I0
tp6975
g4
tp6976
Rp6977
(I1
(I2
tp6978
g11
I00
(lp6979
S'Kuchibhotla'
p6980
aNatp6981
bag1
(g2
(I0
tp6982
g4
tp6983
Rp6984
(I1
(I2
tp6985
g11
I00
(lp6986
S'infertil'
p6987
aNatp6988
bag1
(g2
(I0
tp6989
g4
tp6990
Rp6991
(I1
(I2
tp6992
g11
I00
(lp6993
S'topograph'
p6994
aNatp6995
bag1
(g2
(I0
tp6996
g4
tp6997
Rp6998
(I1
(I2
tp6999
g11
I00
(lp7000
S'sedat'
p7001
aNatp7002
bag1
(g2
(I0
tp7003
g4
tp7004
Rp7005
(I1
(I2
tp7006
g11
I00
(lp7007
S'25-year'
p7008
aNatp7009
bag1
(g2
(I0
tp7010
g4
tp7011
Rp7012
(I1
(I2
tp7013
g11
I00
(lp7014
S'pregam'
p7015
aNatp7016
bag1
(g2
(I0
tp7017
g4
tp7018
Rp7019
(I1
(I2
tp7020
g11
I00
(lp7021
S'3-on-3'
p7022
aNatp7023
bag1
(g2
(I0
tp7024
g4
tp7025
Rp7026
(I1
(I2
tp7027
g11
I00
(lp7028
S'disloyalti'
p7029
aNatp7030
bag1
(g2
(I0
tp7031
g4
tp7032
Rp7033
(I1
(I2
tp7034
g11
I00
(lp7035
S'Identicals'
p7036
aNatp7037
bag1
(g2
(I0
tp7038
g4
tp7039
Rp7040
(I1
(I2
tp7041
g11
I00
(lp7042
S'Dawkinss'
p7043
aNatp7044
bag1
(g2
(I0
tp7045
g4
tp7046
Rp7047
(I1
(I2
tp7048
g11
I00
(lp7049
S'tweetstorm'
p7050
aNatp7051
bag1
(g2
(I0
tp7052
g4
tp7053
Rp7054
(I1
(I2
tp7055
g11
I00
(lp7056
S'Keatons'
p7057
aNatp7058
bag1
(g2
(I0
tp7059
g4
tp7060
Rp7061
(I1
(I2
tp7062
g11
I00
(lp7063
S'Ojih'
p7064
aNatp7065
bag1
(g2
(I0
tp7066
g4
tp7067
Rp7068
(I1
(I2
tp7069
g11
I00
(lp7070
S'ravin'
p7071
aNatp7072
bag1
(g2
(I0
tp7073
g4
tp7074
Rp7075
(I1
(I2
tp7076
g11
I00
(lp7077
S'trapez'
p7078
aNatp7079
bag1
(g2
(I0
tp7080
g4
tp7081
Rp7082
(I1
(I2
tp7083
g11
I00
(lp7084
S'americain'
p7085
aNatp7086
bag1
(g2
(I0
tp7087
g4
tp7088
Rp7089
(I1
(I2
tp7090
g11
I00
(lp7091
S'Kwauhuru'
p7092
aNatp7093
bag1
(g2
(I0
tp7094
g4
tp7095
Rp7096
(I1
(I2
tp7097
g11
I00
(lp7098
S'unmatch'
p7099
aNatp7100
bag1
(g2
(I0
tp7101
g4
tp7102
Rp7103
(I1
(I2
tp7104
g11
I00
(lp7105
S'470'
p7106
aNatp7107
bag1
(g2
(I0
tp7108
g4
tp7109
Rp7110
(I1
(I2
tp7111
g11
I00
(lp7112
S'Husafell'
p7113
aNatp7114
bag1
(g2
(I0
tp7115
g4
tp7116
Rp7117
(I1
(I2
tp7118
g11
I00
(lp7119
S'Sanle'
p7120
aNatp7121
bag1
(g2
(I0
tp7122
g4
tp7123
Rp7124
(I1
(I2
tp7125
g11
I00
(lp7126
S'mahogani'
p7127
aNatp7128
bag1
(g2
(I0
tp7129
g4
tp7130
Rp7131
(I1
(I2
tp7132
g11
I00
(lp7133
S'998'
p7134
aNatp7135
bag1
(g2
(I0
tp7136
g4
tp7137
Rp7138
(I1
(I2
tp7139
g11
I00
(lp7140
S'mump'
p7141
aNatp7142
bag1
(g2
(I0
tp7143
g4
tp7144
Rp7145
(I1
(I2
tp7146
g11
I00
(lp7147
S'stipul'
p7148
aNatp7149
bag1
(g2
(I0
tp7150
g4
tp7151
Rp7152
(I1
(I2
tp7153
g11
I00
(lp7154
S'intang'
p7155
aNatp7156
bag1
(g2
(I0
tp7157
g4
tp7158
Rp7159
(I1
(I2
tp7160
g11
I00
(lp7161
S'slaughterhous'
p7162
aNatp7163
bag1
(g2
(I0
tp7164
g4
tp7165
Rp7166
(I1
(I2
tp7167
g11
I00
(lp7168
S'36-hole'
p7169
aNatp7170
bag1
(g2
(I0
tp7171
g4
tp7172
Rp7173
(I1
(I2
tp7174
g11
I00
(lp7175
S'telemarket'
p7176
aNatp7177
bag1
(g2
(I0
tp7178
g4
tp7179
Rp7180
(I1
(I2
tp7181
g11
I00
(lp7182
S'magistr'
p7183
aNatp7184
bag1
(g2
(I0
tp7185
g4
tp7186
Rp7187
(I1
(I2
tp7188
g11
I00
(lp7189
S'fanfar'
p7190
aNatp7191
bag1
(g2
(I0
tp7192
g4
tp7193
Rp7194
(I1
(I2
tp7195
g11
I00
(lp7196
S'canopi'
p7197
aNatp7198
bag1
(g2
(I0
tp7199
g4
tp7200
Rp7201
(I1
(I2
tp7202
g11
I00
(lp7203
S'illiteraci'
p7204
aNatp7205
bag1
(g2
(I0
tp7206
g4
tp7207
Rp7208
(I1
(I2
tp7209
g11
I00
(lp7210
S'infami'
p7211
aNatp7212
bag1
(g2
(I0
tp7213
g4
tp7214
Rp7215
(I1
(I2
tp7216
g11
I00
(lp7217
S'ricketi'
p7218
aNatp7219
bag1
(g2
(I0
tp7220
g4
tp7221
Rp7222
(I1
(I2
tp7223
g11
I00
(lp7224
S'Coico'
p7225
aNatp7226
bag1
(g2
(I0
tp7227
g4
tp7228
Rp7229
(I1
(I2
tp7230
g11
I00
(lp7231
S'proverbi'
p7232
aNatp7233
bag1
(g2
(I0
tp7234
g4
tp7235
Rp7236
(I1
(I2
tp7237
g11
I00
(lp7238
S'36th'
p7239
aNatp7240
bag1
(g2
(I0
tp7241
g4
tp7242
Rp7243
(I1
(I2
tp7244
g11
I00
(lp7245
S'silveri'
p7246
aNatp7247
bag1
(g2
(I0
tp7248
g4
tp7249
Rp7250
(I1
(I2
tp7251
g11
I00
(lp7252
S'Wenjian'
p7253
aNatp7254
bag1
(g2
(I0
tp7255
g4
tp7256
Rp7257
(I1
(I2
tp7258
g11
I00
(lp7259
S'Brnabic'
p7260
aNatp7261
bag1
(g2
(I0
tp7262
g4
tp7263
Rp7264
(I1
(I2
tp7265
g11
I00
(lp7266
S'precari'
p7267
aNatp7268
bag1
(g2
(I0
tp7269
g4
tp7270
Rp7271
(I1
(I2
tp7272
g11
I00
(lp7273
S'Schouler'
p7274
aNatp7275
bag1
(g2
(I0
tp7276
g4
tp7277
Rp7278
(I1
(I2
tp7279
g11
I00
(lp7280
S'intermiss'
p7281
aNatp7282
bag1
(g2
(I0
tp7283
g4
tp7284
Rp7285
(I1
(I2
tp7286
g11
I00
(lp7287
S'Kippur'
p7288
aNatp7289
bag1
(g2
(I0
tp7290
g4
tp7291
Rp7292
(I1
(I2
tp7293
g11
I00
(lp7294
S'295'
p7295
aNatp7296
bag1
(g2
(I0
tp7297
g4
tp7298
Rp7299
(I1
(I2
tp7300
g11
I00
(lp7301
S'Kasmin'
p7302
aNatp7303
bag1
(g2
(I0
tp7304
g4
tp7305
Rp7306
(I1
(I2
tp7307
g11
I00
(lp7308
S'apprentic'
p7309
aNatp7310
bag1
(g2
(I0
tp7311
g4
tp7312
Rp7313
(I1
(I2
tp7314
g11
I00
(lp7315
S'wattag'
p7316
aNatp7317
bag1
(g2
(I0
tp7318
g4
tp7319
Rp7320
(I1
(I2
tp7321
g11
I00
(lp7322
S'Kooning'
p7323
aNatp7324
bag1
(g2
(I0
tp7325
g4
tp7326
Rp7327
(I1
(I2
tp7328
g11
I00
(lp7329
S'larceni'
p7330
aNatp7331
bag1
(g2
(I0
tp7332
g4
tp7333
Rp7334
(I1
(I2
tp7335
g11
I00
(lp7336
S'Baltimores'
p7337
aNatp7338
bag1
(g2
(I0
tp7339
g4
tp7340
Rp7341
(I1
(I2
tp7342
g11
I00
(lp7343
S'Agtmael'
p7344
aNatp7345
bag1
(g2
(I0
tp7346
g4
tp7347
Rp7348
(I1
(I2
tp7349
g11
I00
(lp7350
S'498'
p7351
aNatp7352
bag1
(g2
(I0
tp7353
g4
tp7354
Rp7355
(I1
(I2
tp7356
g11
I00
(lp7357
S'pointedli'
p7358
aNatp7359
bag1
(g2
(I0
tp7360
g4
tp7361
Rp7362
(I1
(I2
tp7363
g11
I00
(lp7364
S'Prochnik'
p7365
aNatp7366
bag1
(g2
(I0
tp7367
g4
tp7368
Rp7369
(I1
(I2
tp7370
g11
I00
(lp7371
S'forebod'
p7372
aNatp7373
bag1
(g2
(I0
tp7374
g4
tp7375
Rp7376
(I1
(I2
tp7377
g11
I00
(lp7378
S'Garrows'
p7379
aNatp7380
bag1
(g2
(I0
tp7381
g4
tp7382
Rp7383
(I1
(I2
tp7384
g11
I00
(lp7385
S'ForWith'
p7386
aNatp7387
bag1
(g2
(I0
tp7388
g4
tp7389
Rp7390
(I1
(I2
tp7391
g11
I00
(lp7392
S'495'
p7393
aNatp7394
bag1
(g2
(I0
tp7395
g4
tp7396
Rp7397
(I1
(I2
tp7398
g11
I00
(lp7399
S'toxicolog'
p7400
aNatp7401
bag1
(g2
(I0
tp7402
g4
tp7403
Rp7404
(I1
(I2
tp7405
g11
I00
(lp7406
S'syring'
p7407
aNatp7408
bag1
(g2
(I0
tp7409
g4
tp7410
Rp7411
(I1
(I2
tp7412
g11
I00
(lp7413
S'iter'
p7414
aNatp7415
bag1
(g2
(I0
tp7416
g4
tp7417
Rp7418
(I1
(I2
tp7419
g11
I00
(lp7420
S'Memphiss'
p7421
aNatp7422
bag1
(g2
(I0
tp7423
g4
tp7424
Rp7425
(I1
(I2
tp7426
g11
I00
(lp7427
S'stairwel'
p7428
aNatp7429
bag1
(g2
(I0
tp7430
g4
tp7431
Rp7432
(I1
(I2
tp7433
g11
I00
(lp7434
S'subcommitte'
p7435
aNatp7436
bag1
(g2
(I0
tp7437
g4
tp7438
Rp7439
(I1
(I2
tp7440
g11
I00
(lp7441
S'complimentari'
p7442
aNatp7443
bag1
(g2
(I0
tp7444
g4
tp7445
Rp7446
(I1
(I2
tp7447
g11
I00
(lp7448
S'unrecogn'
p7449
aNatp7450
bag1
(g2
(I0
tp7451
g4
tp7452
Rp7453
(I1
(I2
tp7454
g11
I00
(lp7455
S'capuchino'
p7456
aNatp7457
bag1
(g2
(I0
tp7458
g4
tp7459
Rp7460
(I1
(I2
tp7461
g11
I00
(lp7462
S'collegi'
p7463
aNatp7464
bag1
(g2
(I0
tp7465
g4
tp7466
Rp7467
(I1
(I2
tp7468
g11
I00
(lp7469
S'eloqu'
p7470
aNatp7471
bag1
(g2
(I0
tp7472
g4
tp7473
Rp7474
(I1
(I2
tp7475
g11
I00
(lp7476
S'untreat'
p7477
aNatp7478
bag1
(g2
(I0
tp7479
g4
tp7480
Rp7481
(I1
(I2
tp7482
g11
I00
(lp7483
S'accolad'
p7484
aNatp7485
bag1
(g2
(I0
tp7486
g4
tp7487
Rp7488
(I1
(I2
tp7489
g11
I00
(lp7490
S'Herpen'
p7491
aNatp7492
bag1
(g2
(I0
tp7493
g4
tp7494
Rp7495
(I1
(I2
tp7496
g11
I00
(lp7497
S'doabl'
p7498
aNatp7499
bag1
(g2
(I0
tp7500
g4
tp7501
Rp7502
(I1
(I2
tp7503
g11
I00
(lp7504
S'intermingl'
p7505
aNatp7506
bag1
(g2
(I0
tp7507
g4
tp7508
Rp7509
(I1
(I2
tp7510
g11
I00
(lp7511
S'Metrograph'
p7512
aNatp7513
bag1
(g2
(I0
tp7514
g4
tp7515
Rp7516
(I1
(I2
tp7517
g11
I00
(lp7518
S'Jemele'
p7519
aNatp7520
bag1
(g2
(I0
tp7521
g4
tp7522
Rp7523
(I1
(I2
tp7524
g11
I00
(lp7525
S'parsonag'
p7526
aNatp7527
bag1
(g2
(I0
tp7528
g4
tp7529
Rp7530
(I1
(I2
tp7531
g11
I00
(lp7532
S'Voronenkov'
p7533
aNatp7534
bag1
(g2
(I0
tp7535
g4
tp7536
Rp7537
(I1
(I2
tp7538
g11
I00
(lp7539
S'Gleyber'
p7540
aNatp7541
bag1
(g2
(I0
tp7542
g4
tp7543
Rp7544
(I1
(I2
tp7545
g11
I00
(lp7546
S'undu'
p7547
aNatp7548
bag1
(g2
(I0
tp7549
g4
tp7550
Rp7551
(I1
(I2
tp7552
g11
I00
(lp7553
S'Yerushalmy'
p7554
aNatp7555
bag1
(g2
(I0
tp7556
g4
tp7557
Rp7558
(I1
(I2
tp7559
g11
I00
(lp7560
S'Campions'
p7561
aNatp7562
bag1
(g2
(I0
tp7563
g4
tp7564
Rp7565
(I1
(I2
tp7566
g11
I00
(lp7567
S'frustratingli'
p7568
aNatp7569
bag1
(g2
(I0
tp7570
g4
tp7571
Rp7572
(I1
(I2
tp7573
g11
I00
(lp7574
S'multilay'
p7575
aNatp7576
bag1
(g2
(I0
tp7577
g4
tp7578
Rp7579
(I1
(I2
tp7580
g11
I00
(lp7581
S'Ethiopias'
p7582
aNatp7583
bag1
(g2
(I0
tp7584
g4
tp7585
Rp7586
(I1
(I2
tp7587
g11
I00
(lp7588
S'miscarriag'
p7589
aNatp7590
bag1
(g2
(I0
tp7591
g4
tp7592
Rp7593
(I1
(I2
tp7594
g11
I00
(lp7595
S'unintellig'
p7596
aNatp7597
bag1
(g2
(I0
tp7598
g4
tp7599
Rp7600
(I1
(I2
tp7601
g11
I00
(lp7602
S'Fillons'
p7603
aNatp7604
bag1
(g2
(I0
tp7605
g4
tp7606
Rp7607
(I1
(I2
tp7608
g11
I00
(lp7609
S'elaps'
p7610
aNatp7611
bag1
(g2
(I0
tp7612
g4
tp7613
Rp7614
(I1
(I2
tp7615
g11
I00
(lp7616
S'enmiti'
p7617
aNatp7618
bag1
(g2
(I0
tp7619
g4
tp7620
Rp7621
(I1
(I2
tp7622
g11
I00
(lp7623
S'11000'
p7624
aNatp7625
bag1
(g2
(I0
tp7626
g4
tp7627
Rp7628
(I1
(I2
tp7629
g11
I00
(lp7630
S'Zaghba'
p7631
aNatp7632
bag1
(g2
(I0
tp7633
g4
tp7634
Rp7635
(I1
(I2
tp7636
g11
I00
(lp7637
S'unwav'
p7638
aNatp7639
bag1
(g2
(I0
tp7640
g4
tp7641
Rp7642
(I1
(I2
tp7643
g11
I00
(lp7644
S'flirtati'
p7645
aNatp7646
bag1
(g2
(I0
tp7647
g4
tp7648
Rp7649
(I1
(I2
tp7650
g11
I00
(lp7651
S'MoveOpolis'
p7652
aNatp7653
bag1
(g2
(I0
tp7654
g4
tp7655
Rp7656
(I1
(I2
tp7657
g11
I00
(lp7658
S'courtsid'
p7659
aNatp7660
bag1
(g2
(I0
tp7661
g4
tp7662
Rp7663
(I1
(I2
tp7664
g11
I00
(lp7665
S'slipperi'
p7666
aNatp7667
bag1
(g2
(I0
tp7668
g4
tp7669
Rp7670
(I1
(I2
tp7671
g11
I00
(lp7672
S'plaintiv'
p7673
aNatp7674
bag1
(g2
(I0
tp7675
g4
tp7676
Rp7677
(I1
(I2
tp7678
g11
I00
(lp7679
S'506'
p7680
aNatp7681
bag1
(g2
(I0
tp7682
g4
tp7683
Rp7684
(I1
(I2
tp7685
g11
I00
(lp7686
S'509'
p7687
aNatp7688
bag1
(g2
(I0
tp7689
g4
tp7690
Rp7691
(I1
(I2
tp7692
g11
I00
(lp7693
S'Baquer'
p7694
aNatp7695
bag1
(g2
(I0
tp7696
g4
tp7697
Rp7698
(I1
(I2
tp7699
g11
I00
(lp7700
S'shortcak'
p7701
aNatp7702
bag1
(g2
(I0
tp7703
g4
tp7704
Rp7705
(I1
(I2
tp7706
g11
I00
(lp7707
S'macroeconom'
p7708
aNatp7709
bag1
(g2
(I0
tp7710
g4
tp7711
Rp7712
(I1
(I2
tp7713
g11
I00
(lp7714
S'10-piece'
p7715
aNatp7716
bag1
(g2
(I0
tp7717
g4
tp7718
Rp7719
(I1
(I2
tp7720
g11
I00
(lp7721
S'brownston'
p7722
aNatp7723
bag1
(g2
(I0
tp7724
g4
tp7725
Rp7726
(I1
(I2
tp7727
g11
I00
(lp7728
S'2300'
p7729
aNatp7730
bag1
(g2
(I0
tp7731
g4
tp7732
Rp7733
(I1
(I2
tp7734
g11
I00
(lp7735
S'wholesom'
p7736
aNatp7737
bag1
(g2
(I0
tp7738
g4
tp7739
Rp7740
(I1
(I2
tp7741
g11
I00
(lp7742
S'Sedariss'
p7743
aNatp7744
bag1
(g2
(I0
tp7745
g4
tp7746
Rp7747
(I1
(I2
tp7748
g11
I00
(lp7749
S'masteri'
p7750
aNatp7751
bag1
(g2
(I0
tp7752
g4
tp7753
Rp7754
(I1
(I2
tp7755
g11
I00
(lp7756
S'Motal'
p7757
aNatp7758
bag1
(g2
(I0
tp7759
g4
tp7760
Rp7761
(I1
(I2
tp7762
g11
I00
(lp7763
S'cocki'
p7764
aNatp7765
bag1
(g2
(I0
tp7766
g4
tp7767
Rp7768
(I1
(I2
tp7769
g11
I00
(lp7770
S'predetermin'
p7771
aNatp7772
bag1
(g2
(I0
tp7773
g4
tp7774
Rp7775
(I1
(I2
tp7776
g11
I00
(lp7777
S'microorgan'
p7778
aNatp7779
bag1
(g2
(I0
tp7780
g4
tp7781
Rp7782
(I1
(I2
tp7783
g11
I00
(lp7784
S'authori'
p7785
aNatp7786
bag1
(g2
(I0
tp7787
g4
tp7788
Rp7789
(I1
(I2
tp7790
g11
I00
(lp7791
S'Guatemalas'
p7792
aNatp7793
bag1
(g2
(I0
tp7794
g4
tp7795
Rp7796
(I1
(I2
tp7797
g11
I00
(lp7798
S'1840'
p7799
aNatp7800
bag1
(g2
(I0
tp7801
g4
tp7802
Rp7803
(I1
(I2
tp7804
g11
I00
(lp7805
S'775-foot'
p7806
aNatp7807
bag1
(g2
(I0
tp7808
g4
tp7809
Rp7810
(I1
(I2
tp7811
g11
I00
(lp7812
S'1841'
p7813
aNatp7814
bag1
(g2
(I0
tp7815
g4
tp7816
Rp7817
(I1
(I2
tp7818
g11
I00
(lp7819
S'beekeep'
p7820
aNatp7821
bag1
(g2
(I0
tp7822
g4
tp7823
Rp7824
(I1
(I2
tp7825
g11
I00
(lp7826
S'camouflag'
p7827
aNatp7828
bag1
(g2
(I0
tp7829
g4
tp7830
Rp7831
(I1
(I2
tp7832
g11
I00
(lp7833
S'Martoma'
p7834
aNatp7835
bag1
(g2
(I0
tp7836
g4
tp7837
Rp7838
(I1
(I2
tp7839
g11
I00
(lp7840
S'Kusmi'
p7841
aNatp7842
bag1
(g2
(I0
tp7843
g4
tp7844
Rp7845
(I1
(I2
tp7846
g11
I00
(lp7847
S'unaffect'
p7848
aNatp7849
bag1
(g2
(I0
tp7850
g4
tp7851
Rp7852
(I1
(I2
tp7853
g11
I00
(lp7854
S'arcad'
p7855
aNatp7856
bag1
(g2
(I0
tp7857
g4
tp7858
Rp7859
(I1
(I2
tp7860
g11
I00
(lp7861
S'bacteri'
p7862
aNatp7863
bag1
(g2
(I0
tp7864
g4
tp7865
Rp7866
(I1
(I2
tp7867
g11
I00
(lp7868
S'axe'
p7869
aNatp7870
bag1
(g2
(I0
tp7871
g4
tp7872
Rp7873
(I1
(I2
tp7874
g11
I00
(lp7875
S'dynast'
p7876
aNatp7877
bag1
(g2
(I0
tp7878
g4
tp7879
Rp7880
(I1
(I2
tp7881
g11
I00
(lp7882
S'conif'
p7883
aNatp7884
bag1
(g2
(I0
tp7885
g4
tp7886
Rp7887
(I1
(I2
tp7888
g11
I00
(lp7889
S'Tianyong'
p7890
aNatp7891
bag1
(g2
(I0
tp7892
g4
tp7893
Rp7894
(I1
(I2
tp7895
g11
I00
(lp7896
S'surli'
p7897
aNatp7898
bag1
(g2
(I0
tp7899
g4
tp7900
Rp7901
(I1
(I2
tp7902
g11
I00
(lp7903
S'1912'
p7904
aNatp7905
bag1
(g2
(I0
tp7906
g4
tp7907
Rp7908
(I1
(I2
tp7909
g11
I00
(lp7910
S'tickl'
p7911
aNatp7912
bag1
(g2
(I0
tp7913
g4
tp7914
Rp7915
(I1
(I2
tp7916
g11
I00
(lp7917
S'Finkels'
p7918
aNatp7919
bag1
(g2
(I0
tp7920
g4
tp7921
Rp7922
(I1
(I2
tp7923
g11
I00
(lp7924
S'Qaedas'
p7925
aNatp7926
bag1
(g2
(I0
tp7927
g4
tp7928
Rp7929
(I1
(I2
tp7930
g11
I00
(lp7931
S'uncondit'
p7932
aNatp7933
bag1
(g2
(I0
tp7934
g4
tp7935
Rp7936
(I1
(I2
tp7937
g11
I00
(lp7938
S'Aliebn'
p7939
aNatp7940
bag1
(g2
(I0
tp7941
g4
tp7942
Rp7943
(I1
(I2
tp7944
g11
I00
(lp7945
S'Stevenss'
p7946
aNatp7947
bag1
(g2
(I0
tp7948
g4
tp7949
Rp7950
(I1
(I2
tp7951
g11
I00
(lp7952
S'unapprov'
p7953
aNatp7954
bag1
(g2
(I0
tp7955
g4
tp7956
Rp7957
(I1
(I2
tp7958
g11
I00
(lp7959
S'nonchal'
p7960
aNatp7961
bag1
(g2
(I0
tp7962
g4
tp7963
Rp7964
(I1
(I2
tp7965
g11
I00
(lp7966
S'undul'
p7967
aNatp7968
bag1
(g2
(I0
tp7969
g4
tp7970
Rp7971
(I1
(I2
tp7972
g11
I00
(lp7973
S'snowi'
p7974
aNatp7975
bag1
(g2
(I0
tp7976
g4
tp7977
Rp7978
(I1
(I2
tp7979
g11
I00
(lp7980
S'Boritt'
p7981
aNatp7982
bag1
(g2
(I0
tp7983
g4
tp7984
Rp7985
(I1
(I2
tp7986
g11
I00
(lp7987
S'Gambias'
p7988
aNatp7989
bag1
(g2
(I0
tp7990
g4
tp7991
Rp7992
(I1
(I2
tp7993
g11
I00
(lp7994
S'650000'
p7995
aNatp7996
bag1
(g2
(I0
tp7997
g4
tp7998
Rp7999
(I1
(I2
tp8000
g11
I00
(lp8001
S'schmooz'
p8002
aNatp8003
bag1
(g2
(I0
tp8004
g4
tp8005
Rp8006
(I1
(I2
tp8007
g11
I00
(lp8008
S'123000'
p8009
aNatp8010
bag1
(g2
(I0
tp8011
g4
tp8012
Rp8013
(I1
(I2
tp8014
g11
I00
(lp8015
S'saliv'
p8016
aNatp8017
bag1
(g2
(I0
tp8018
g4
tp8019
Rp8020
(I1
(I2
tp8021
g11
I00
(lp8022
S'Bradburys'
p8023
aNatp8024
bag1
(g2
(I0
tp8025
g4
tp8026
Rp8027
(I1
(I2
tp8028
g11
I00
(lp8029
S'comiti'
p8030
aNatp8031
bag1
(g2
(I0
tp8032
g4
tp8033
Rp8034
(I1
(I2
tp8035
g11
I00
(lp8036
S'malic'
p8037
aNatp8038
bag1
(g2
(I0
tp8039
g4
tp8040
Rp8041
(I1
(I2
tp8042
g11
I00
(lp8043
S'Kamasi'
p8044
aNatp8045
bag1
(g2
(I0
tp8046
g4
tp8047
Rp8048
(I1
(I2
tp8049
g11
I00
(lp8050
S'repositori'
p8051
aNatp8052
bag1
(g2
(I0
tp8053
g4
tp8054
Rp8055
(I1
(I2
tp8056
g11
I00
(lp8057
S'hypermasculin'
p8058
aNatp8059
bag1
(g2
(I0
tp8060
g4
tp8061
Rp8062
(I1
(I2
tp8063
g11
I00
(lp8064
S'5-7'
p8065
aNatp8066
bag1
(g2
(I0
tp8067
g4
tp8068
Rp8069
(I1
(I2
tp8070
g11
I00
(lp8071
S'undevelop'
p8072
aNatp8073
bag1
(g2
(I0
tp8074
g4
tp8075
Rp8076
(I1
(I2
tp8077
g11
I00
(lp8078
S'419'
p8079
aNatp8080
bag1
(g2
(I0
tp8081
g4
tp8082
Rp8083
(I1
(I2
tp8084
g11
I00
(lp8085
S'Gallerys'
p8086
aNatp8087
bag1
(g2
(I0
tp8088
g4
tp8089
Rp8090
(I1
(I2
tp8091
g11
I00
(lp8092
S'Ottessa'
p8093
aNatp8094
bag1
(g2
(I0
tp8095
g4
tp8096
Rp8097
(I1
(I2
tp8098
g11
I00
(lp8099
S'thoroughfar'
p8100
aNatp8101
bag1
(g2
(I0
tp8102
g4
tp8103
Rp8104
(I1
(I2
tp8105
g11
I00
(lp8106
S'Esraa'
p8107
aNatp8108
bag1
(g2
(I0
tp8109
g4
tp8110
Rp8111
(I1
(I2
tp8112
g11
I00
(lp8113
S'smartli'
p8114
aNatp8115
bag1
(g2
(I0
tp8116
g4
tp8117
Rp8118
(I1
(I2
tp8119
g11
I00
(lp8120
S'mirag'
p8121
aNatp8122
bag1
(g2
(I0
tp8123
g4
tp8124
Rp8125
(I1
(I2
tp8126
g11
I00
(lp8127
S'encor'
p8128
aNatp8129
bag1
(g2
(I0
tp8130
g4
tp8131
Rp8132
(I1
(I2
tp8133
g11
I00
(lp8134
S'puddl'
p8135
aNatp8136
bag1
(g2
(I0
tp8137
g4
tp8138
Rp8139
(I1
(I2
tp8140
g11
I00
(lp8141
S'TimesNew'
p8142
aNatp8143
bag1
(g2
(I0
tp8144
g4
tp8145
Rp8146
(I1
(I2
tp8147
g11
I00
(lp8148
S'gaggl'
p8149
aNatp8150
bag1
(g2
(I0
tp8151
g4
tp8152
Rp8153
(I1
(I2
tp8154
g11
I00
(lp8155
S'50-acre'
p8156
aNatp8157
bag1
(g2
(I0
tp8158
g4
tp8159
Rp8160
(I1
(I2
tp8161
g11
I00
(lp8162
S'purgatori'
p8163
aNatp8164
bag1
(g2
(I0
tp8165
g4
tp8166
Rp8167
(I1
(I2
tp8168
g11
I00
(lp8169
S'1890'
p8170
aNatp8171
bag1
(g2
(I0
tp8172
g4
tp8173
Rp8174
(I1
(I2
tp8175
g11
I00
(lp8176
S'inopportun'
p8177
aNatp8178
bag1
(g2
(I0
tp8179
g4
tp8180
Rp8181
(I1
(I2
tp8182
g11
I00
(lp8183
S'uniformli'
p8184
aNatp8185
bag1
(g2
(I0
tp8186
g4
tp8187
Rp8188
(I1
(I2
tp8189
g11
I00
(lp8190
S'Cambodias'
p8191
aNatp8192
bag1
(g2
(I0
tp8193
g4
tp8194
Rp8195
(I1
(I2
tp8196
g11
I00
(lp8197
S'Flexen'
p8198
aNatp8199
bag1
(g2
(I0
tp8200
g4
tp8201
Rp8202
(I1
(I2
tp8203
g11
I00
(lp8204
S'Stolls'
p8205
aNatp8206
bag1
(g2
(I0
tp8207
g4
tp8208
Rp8209
(I1
(I2
tp8210
g11
I00
(lp8211
S'Jugele'
p8212
aNatp8213
bag1
(g2
(I0
tp8214
g4
tp8215
Rp8216
(I1
(I2
tp8217
g11
I00
(lp8218
S'awarde'
p8219
aNatp8220
bag1
(g2
(I0
tp8221
g4
tp8222
Rp8223
(I1
(I2
tp8224
g11
I00
(lp8225
S'iodin'
p8226
aNatp8227
bag1
(g2
(I0
tp8228
g4
tp8229
Rp8230
(I1
(I2
tp8231
g11
I00
(lp8232
S'repetit'
p8233
aNatp8234
bag1
(g2
(I0
tp8235
g4
tp8236
Rp8237
(I1
(I2
tp8238
g11
I00
(lp8239
S'busili'
p8240
aNatp8241
bag1
(g2
(I0
tp8242
g4
tp8243
Rp8244
(I1
(I2
tp8245
g11
I00
(lp8246
S'MoMAs'
p8247
aNatp8248
bag1
(g2
(I0
tp8249
g4
tp8250
Rp8251
(I1
(I2
tp8252
g11
I00
(lp8253
S'36000'
p8254
aNatp8255
bag1
(g2
(I0
tp8256
g4
tp8257
Rp8258
(I1
(I2
tp8259
g11
I00
(lp8260
S'postdoctor'
p8261
aNatp8262
bag1
(g2
(I0
tp8263
g4
tp8264
Rp8265
(I1
(I2
tp8266
g11
I00
(lp8267
S'businesslik'
p8268
aNatp8269
bag1
(g2
(I0
tp8270
g4
tp8271
Rp8272
(I1
(I2
tp8273
g11
I00
(lp8274
S'delinqu'
p8275
aNatp8276
bag1
(g2
(I0
tp8277
g4
tp8278
Rp8279
(I1
(I2
tp8280
g11
I00
(lp8281
S'Moroccos'
p8282
aNatp8283
bag1
(g2
(I0
tp8284
g4
tp8285
Rp8286
(I1
(I2
tp8287
g11
I00
(lp8288
S'unspeak'
p8289
aNatp8290
bag1
(g2
(I0
tp8291
g4
tp8292
Rp8293
(I1
(I2
tp8294
g11
I00
(lp8295
S'symphon'
p8296
aNatp8297
bag1
(g2
(I0
tp8298
g4
tp8299
Rp8300
(I1
(I2
tp8301
g11
I00
(lp8302
S'67th'
p8303
aNatp8304
bag1
(g2
(I0
tp8305
g4
tp8306
Rp8307
(I1
(I2
tp8308
g11
I00
(lp8309
S'14-time'
p8310
aNatp8311
bag1
(g2
(I0
tp8312
g4
tp8313
Rp8314
(I1
(I2
tp8315
g11
I00
(lp8316
S'unmov'
p8317
aNatp8318
bag1
(g2
(I0
tp8319
g4
tp8320
Rp8321
(I1
(I2
tp8322
g11
I00
(lp8323
S'lumpi'
p8324
aNatp8325
bag1
(g2
(I0
tp8326
g4
tp8327
Rp8328
(I1
(I2
tp8329
g11
I00
(lp8330
S'horsepow'
p8331
aNatp8332
bag1
(g2
(I0
tp8333
g4
tp8334
Rp8335
(I1
(I2
tp8336
g11
I00
(lp8337
S'profus'
p8338
aNatp8339
bag1
(g2
(I0
tp8340
g4
tp8341
Rp8342
(I1
(I2
tp8343
g11
I00
(lp8344
S'Hitchcocks'
p8345
aNatp8346
bag1
(g2
(I0
tp8347
g4
tp8348
Rp8349
(I1
(I2
tp8350
g11
I00
(lp8351
S'Hearsts'
p8352
aNatp8353
bag1
(g2
(I0
tp8354
g4
tp8355
Rp8356
(I1
(I2
tp8357
g11
I00
(lp8358
S'SoFi'
p8359
aNatp8360
bag1
(g2
(I0
tp8361
g4
tp8362
Rp8363
(I1
(I2
tp8364
g11
I00
(lp8365
S'Weeknd'
p8366
aNatp8367
bag1
(g2
(I0
tp8368
g4
tp8369
Rp8370
(I1
(I2
tp8371
g11
I00
(lp8372
S'reprehens'
p8373
aNatp8374
bag1
(g2
(I0
tp8375
g4
tp8376
Rp8377
(I1
(I2
tp8378
g11
I00
(lp8379
S'noos'
p8380
aNatp8381
bag1
(g2
(I0
tp8382
g4
tp8383
Rp8384
(I1
(I2
tp8385
g11
I00
(lp8386
S'ruthlessli'
p8387
aNatp8388
bag1
(g2
(I0
tp8389
g4
tp8390
Rp8391
(I1
(I2
tp8392
g11
I00
(lp8393
S'0-2'
p8394
aNatp8395
bag1
(g2
(I0
tp8396
g4
tp8397
Rp8398
(I1
(I2
tp8399
g11
I00
(lp8400
S'126000'
p8401
aNatp8402
bag1
(g2
(I0
tp8403
g4
tp8404
Rp8405
(I1
(I2
tp8406
g11
I00
(lp8407
S'97'
p8408
aNatp8409
bag1
(g2
(I0
tp8410
g4
tp8411
Rp8412
(I1
(I2
tp8413
g11
I00
(lp8414
S'Bilboquet'
p8415
aNatp8416
bag1
(g2
(I0
tp8417
g4
tp8418
Rp8419
(I1
(I2
tp8420
g11
I00
(lp8421
S'Aronofskys'
p8422
aNatp8423
bag1
(g2
(I0
tp8424
g4
tp8425
Rp8426
(I1
(I2
tp8427
g11
I00
(lp8428
S'boilerpl'
p8429
aNatp8430
bag1
(g2
(I0
tp8431
g4
tp8432
Rp8433
(I1
(I2
tp8434
g11
I00
(lp8435
S'macO'
p8436
aNatp8437
bag1
(g2
(I0
tp8438
g4
tp8439
Rp8440
(I1
(I2
tp8441
g11
I00
(lp8442
S'9-1'
p8443
aNatp8444
bag1
(g2
(I0
tp8445
g4
tp8446
Rp8447
(I1
(I2
tp8448
g11
I00
(lp8449
S'obliqu'
p8450
aNatp8451
bag1
(g2
(I0
tp8452
g4
tp8453
Rp8454
(I1
(I2
tp8455
g11
I00
(lp8456
S'1893'
p8457
aNatp8458
bag1
(g2
(I0
tp8459
g4
tp8460
Rp8461
(I1
(I2
tp8462
g11
I00
(lp8463
S'1897'
p8464
aNatp8465
bag1
(g2
(I0
tp8466
g4
tp8467
Rp8468
(I1
(I2
tp8469
g11
I00
(lp8470
S'DelGaudio'
p8471
aNatp8472
bag1
(g2
(I0
tp8473
g4
tp8474
Rp8475
(I1
(I2
tp8476
g11
I00
(lp8477
S'brasseri'
p8478
aNatp8479
bag1
(g2
(I0
tp8480
g4
tp8481
Rp8482
(I1
(I2
tp8483
g11
I00
(lp8484
S'12-18'
p8485
aNatp8486
bag1
(g2
(I0
tp8487
g4
tp8488
Rp8489
(I1
(I2
tp8490
g11
I00
(lp8491
S'panopli'
p8492
aNatp8493
bag1
(g2
(I0
tp8494
g4
tp8495
Rp8496
(I1
(I2
tp8497
g11
I00
(lp8498
S'separat'
p8499
aNatp8500
bag1
(g2
(I0
tp8501
g4
tp8502
Rp8503
(I1
(I2
tp8504
g11
I00
(lp8505
S'Agencys'
p8506
aNatp8507
bag1
(g2
(I0
tp8508
g4
tp8509
Rp8510
(I1
(I2
tp8511
g11
I00
(lp8512
S'unvaccin'
p8513
aNatp8514
bag1
(g2
(I0
tp8515
g4
tp8516
Rp8517
(I1
(I2
tp8518
g11
I00
(lp8519
S'overpopul'
p8520
aNatp8521
bag1
(g2
(I0
tp8522
g4
tp8523
Rp8524
(I1
(I2
tp8525
g11
I00
(lp8526
S'Aileys'
p8527
aNatp8528
bag1
(g2
(I0
tp8529
g4
tp8530
Rp8531
(I1
(I2
tp8532
g11
I00
(lp8533
S'repackag'
p8534
aNatp8535
bag1
(g2
(I0
tp8536
g4
tp8537
Rp8538
(I1
(I2
tp8539
g11
I00
(lp8540
S'Vetements'
p8541
aNatp8542
bag1
(g2
(I0
tp8543
g4
tp8544
Rp8545
(I1
(I2
tp8546
g11
I00
(lp8547
S'1005'
p8548
aNatp8549
bag1
(g2
(I0
tp8550
g4
tp8551
Rp8552
(I1
(I2
tp8553
g11
I00
(lp8554
S'covertli'
p8555
aNatp8556
bag1
(g2
(I0
tp8557
g4
tp8558
Rp8559
(I1
(I2
tp8560
g11
I00
(lp8561
S'softbal'
p8562
aNatp8563
bag1
(g2
(I0
tp8564
g4
tp8565
Rp8566
(I1
(I2
tp8567
g11
I00
(lp8568
S'interced'
p8569
aNatp8570
bag1
(g2
(I0
tp8571
g4
tp8572
Rp8573
(I1
(I2
tp8574
g11
I00
(lp8575
S'concili'
p8576
aNatp8577
bag1
(g2
(I0
tp8578
g4
tp8579
Rp8580
(I1
(I2
tp8581
g11
I00
(lp8582
S'Kuzminskas'
p8583
aNatp8584
bag1
(g2
(I0
tp8585
g4
tp8586
Rp8587
(I1
(I2
tp8588
g11
I00
(lp8589
S'patrimoni'
p8590
aNatp8591
bag1
(g2
(I0
tp8592
g4
tp8593
Rp8594
(I1
(I2
tp8595
g11
I00
(lp8596
S'inoffens'
p8597
aNatp8598
bag1
(g2
(I0
tp8599
g4
tp8600
Rp8601
(I1
(I2
tp8602
g11
I00
(lp8603
S'suffoc'
p8604
aNatp8605
bag1
(g2
(I0
tp8606
g4
tp8607
Rp8608
(I1
(I2
tp8609
g11
I00
(lp8610
S'comatos'
p8611
aNatp8612
bag1
(g2
(I0
tp8613
g4
tp8614
Rp8615
(I1
(I2
tp8616
g11
I00
(lp8617
S'unspoil'
p8618
aNatp8619
bag1
(g2
(I0
tp8620
g4
tp8621
Rp8622
(I1
(I2
tp8623
g11
I00
(lp8624
S'WNBAs'
p8625
aNatp8626
bag1
(g2
(I0
tp8627
g4
tp8628
Rp8629
(I1
(I2
tp8630
g11
I00
(lp8631
S'consumm'
p8632
aNatp8633
bag1
(g2
(I0
tp8634
g4
tp8635
Rp8636
(I1
(I2
tp8637
g11
I00
(lp8638
S'blurri'
p8639
aNatp8640
bag1
(g2
(I0
tp8641
g4
tp8642
Rp8643
(I1
(I2
tp8644
g11
I00
(lp8645
S'1025'
p8646
aNatp8647
bag1
(g2
(I0
tp8648
g4
tp8649
Rp8650
(I1
(I2
tp8651
g11
I00
(lp8652
S'supersed'
p8653
aNatp8654
bag1
(g2
(I0
tp8655
g4
tp8656
Rp8657
(I1
(I2
tp8658
g11
I00
(lp8659
S'Sennas'
p8660
aNatp8661
bag1
(g2
(I0
tp8662
g4
tp8663
Rp8664
(I1
(I2
tp8665
g11
I00
(lp8666
S'precoci'
p8667
aNatp8668
bag1
(g2
(I0
tp8669
g4
tp8670
Rp8671
(I1
(I2
tp8672
g11
I00
(lp8673
S'Ivankas'
p8674
aNatp8675
bag1
(g2
(I0
tp8676
g4
tp8677
Rp8678
(I1
(I2
tp8679
g11
I00
(lp8680
S'1946'
p8681
aNatp8682
bag1
(g2
(I0
tp8683
g4
tp8684
Rp8685
(I1
(I2
tp8686
g11
I00
(lp8687
S'melod'
p8688
aNatp8689
bag1
(g2
(I0
tp8690
g4
tp8691
Rp8692
(I1
(I2
tp8693
g11
I00
(lp8694
S'645'
p8695
aNatp8696
bag1
(g2
(I0
tp8697
g4
tp8698
Rp8699
(I1
(I2
tp8700
g11
I00
(lp8701
S'18-game'
p8702
aNatp8703
bag1
(g2
(I0
tp8704
g4
tp8705
Rp8706
(I1
(I2
tp8707
g11
I00
(lp8708
S'Harasser'
p8709
aNatp8710
bag1
(g2
(I0
tp8711
g4
tp8712
Rp8713
(I1
(I2
tp8714
g11
I00
(lp8715
S'Yachty'
p8716
aNatp8717
bag1
(g2
(I0
tp8718
g4
tp8719
Rp8720
(I1
(I2
tp8721
g11
I00
(lp8722
S'estan'
p8723
aNatp8724
bag1
(g2
(I0
tp8725
g4
tp8726
Rp8727
(I1
(I2
tp8728
g11
I00
(lp8729
S'unoppos'
p8730
aNatp8731
bag1
(g2
(I0
tp8732
g4
tp8733
Rp8734
(I1
(I2
tp8735
g11
I00
(lp8736
S'Giu'
p8737
aNatp8738
bag1
(g2
(I0
tp8739
g4
tp8740
Rp8741
(I1
(I2
tp8742
g11
I00
(lp8743
S'Nediger'
p8744
aNatp8745
bag1
(g2
(I0
tp8746
g4
tp8747
Rp8748
(I1
(I2
tp8749
g11
I00
(lp8750
S'decompos'
p8751
aNatp8752
bag1
(g2
(I0
tp8753
g4
tp8754
Rp8755
(I1
(I2
tp8756
g11
I00
(lp8757
S'2400'
p8758
aNatp8759
bag1
(g2
(I0
tp8760
g4
tp8761
Rp8762
(I1
(I2
tp8763
g11
I00
(lp8764
S'subtitl'
p8765
aNatp8766
bag1
(g2
(I0
tp8767
g4
tp8768
Rp8769
(I1
(I2
tp8770
g11
I00
(lp8771
S'dilapid'
p8772
aNatp8773
bag1
(g2
(I0
tp8774
g4
tp8775
Rp8776
(I1
(I2
tp8777
g11
I00
(lp8778
S'incis'
p8779
aNatp8780
bag1
(g2
(I0
tp8781
g4
tp8782
Rp8783
(I1
(I2
tp8784
g11
I00
(lp8785
S'mouthi'
p8786
aNatp8787
bag1
(g2
(I0
tp8788
g4
tp8789
Rp8790
(I1
(I2
tp8791
g11
I00
(lp8792
S'Jaheen'
p8793
aNatp8794
bag1
(g2
(I0
tp8795
g4
tp8796
Rp8797
(I1
(I2
tp8798
g11
I00
(lp8799
S'terminolog'
p8800
aNatp8801
bag1
(g2
(I0
tp8802
g4
tp8803
Rp8804
(I1
(I2
tp8805
g11
I00
(lp8806
S'75-acre'
p8807
aNatp8808
bag1
(g2
(I0
tp8809
g4
tp8810
Rp8811
(I1
(I2
tp8812
g11
I00
(lp8813
S'shadi'
p8814
aNatp8815
bag1
(g2
(I0
tp8816
g4
tp8817
Rp8818
(I1
(I2
tp8819
g11
I00
(lp8820
S'countrywid'
p8821
aNatp8822
bag1
(g2
(I0
tp8823
g4
tp8824
Rp8825
(I1
(I2
tp8826
g11
I00
(lp8827
S'prefabr'
p8828
aNatp8829
bag1
(g2
(I0
tp8830
g4
tp8831
Rp8832
(I1
(I2
tp8833
g11
I00
(lp8834
S'33rd'
p8835
aNatp8836
bag1
(g2
(I0
tp8837
g4
tp8838
Rp8839
(I1
(I2
tp8840
g11
I00
(lp8841
S'burli'
p8842
aNatp8843
bag1
(g2
(I0
tp8844
g4
tp8845
Rp8846
(I1
(I2
tp8847
g11
I00
(lp8848
S'Vades'
p8849
aNatp8850
bag1
(g2
(I0
tp8851
g4
tp8852
Rp8853
(I1
(I2
tp8854
g11
I00
(lp8855
S'indig'
p8856
aNatp8857
bag1
(g2
(I0
tp8858
g4
tp8859
Rp8860
(I1
(I2
tp8861
g11
I00
(lp8862
S'Priestleys'
p8863
aNatp8864
bag1
(g2
(I0
tp8865
g4
tp8866
Rp8867
(I1
(I2
tp8868
g11
I00
(lp8869
S'laundri'
p8870
aNatp8871
bag1
(g2
(I0
tp8872
g4
tp8873
Rp8874
(I1
(I2
tp8875
g11
I00
(lp8876
S'107'
p8877
aNatp8878
bag1
(g2
(I0
tp8879
g4
tp8880
Rp8881
(I1
(I2
tp8882
g11
I00
(lp8883
S'rerout'
p8884
aNatp8885
bag1
(g2
(I0
tp8886
g4
tp8887
Rp8888
(I1
(I2
tp8889
g11
I00
(lp8890
S'Raanta'
p8891
aNatp8892
bag1
(g2
(I0
tp8893
g4
tp8894
Rp8895
(I1
(I2
tp8896
g11
I00
(lp8897
S'50-a'
p8898
aNatp8899
bag1
(g2
(I0
tp8900
g4
tp8901
Rp8902
(I1
(I2
tp8903
g11
I00
(lp8904
S'superstor'
p8905
aNatp8906
bag1
(g2
(I0
tp8907
g4
tp8908
Rp8909
(I1
(I2
tp8910
g11
I00
(lp8911
S'cucumb'
p8912
aNatp8913
bag1
(g2
(I0
tp8914
g4
tp8915
Rp8916
(I1
(I2
tp8917
g11
I00
(lp8918
S'treacheri'
p8919
aNatp8920
bag1
(g2
(I0
tp8921
g4
tp8922
Rp8923
(I1
(I2
tp8924
g11
I00
(lp8925
S'14-point'
p8926
aNatp8927
bag1
(g2
(I0
tp8928
g4
tp8929
Rp8930
(I1
(I2
tp8931
g11
I00
(lp8932
S'Milhauds'
p8933
aNatp8934
bag1
(g2
(I0
tp8935
g4
tp8936
Rp8937
(I1
(I2
tp8938
g11
I00
(lp8939
S'Janeites'
p8940
aNatp8941
bag1
(g2
(I0
tp8942
g4
tp8943
Rp8944
(I1
(I2
tp8945
g11
I00
(lp8946
S'Stedelijk'
p8947
aNatp8948
bag1
(g2
(I0
tp8949
g4
tp8950
Rp8951
(I1
(I2
tp8952
g11
I00
(lp8953
S'thesi'
p8954
aNatp8955
bag1
(g2
(I0
tp8956
g4
tp8957
Rp8958
(I1
(I2
tp8959
g11
I00
(lp8960
S'infantri'
p8961
aNatp8962
bag1
(g2
(I0
tp8963
g4
tp8964
Rp8965
(I1
(I2
tp8966
g11
I00
(lp8967
S'iMessag'
p8968
aNatp8969
bag1
(g2
(I0
tp8970
g4
tp8971
Rp8972
(I1
(I2
tp8973
g11
I00
(lp8974
S'reconfigur'
p8975
aNatp8976
bag1
(g2
(I0
tp8977
g4
tp8978
Rp8979
(I1
(I2
tp8980
g11
I00
(lp8981
S'scrupul'
p8982
aNatp8983
bag1
(g2
(I0
tp8984
g4
tp8985
Rp8986
(I1
(I2
tp8987
g11
I00
(lp8988
S'espous'
p8989
aNatp8990
bag1
(g2
(I0
tp8991
g4
tp8992
Rp8993
(I1
(I2
tp8994
g11
I00
(lp8995
S'Thomass'
p8996
aNatp8997
bag1
(g2
(I0
tp8998
g4
tp8999
Rp9000
(I1
(I2
tp9001
g11
I00
(lp9002
S'Refashionista'
p9003
aNatp9004
bag1
(g2
(I0
tp9005
g4
tp9006
Rp9007
(I1
(I2
tp9008
g11
I00
(lp9009
S'Araton'
p9010
aNatp9011
bag1
(g2
(I0
tp9012
g4
tp9013
Rp9014
(I1
(I2
tp9015
g11
I00
(lp9016
S'assuag'
p9017
aNatp9018
bag1
(g2
(I0
tp9019
g4
tp9020
Rp9021
(I1
(I2
tp9022
g11
I00
(lp9023
S'propens'
p9024
aNatp9025
bag1
(g2
(I0
tp9026
g4
tp9027
Rp9028
(I1
(I2
tp9029
g11
I00
(lp9030
S'inexperienc'
p9031
aNatp9032
bag1
(g2
(I0
tp9033
g4
tp9034
Rp9035
(I1
(I2
tp9036
g11
I00
(lp9037
S'unsteadi'
p9038
aNatp9039
bag1
(g2
(I0
tp9040
g4
tp9041
Rp9042
(I1
(I2
tp9043
g11
I00
(lp9044
S'unbeat'
p9045
aNatp9046
bag1
(g2
(I0
tp9047
g4
tp9048
Rp9049
(I1
(I2
tp9050
g11
I00
(lp9051
S'mutil'
p9052
aNatp9053
bag1
(g2
(I0
tp9054
g4
tp9055
Rp9056
(I1
(I2
tp9057
g11
I00
(lp9058
S'Tallents'
p9059
aNatp9060
bag1
(g2
(I0
tp9061
g4
tp9062
Rp9063
(I1
(I2
tp9064
g11
I00
(lp9065
S'Sanduskys'
p9066
aNatp9067
bag1
(g2
(I0
tp9068
g4
tp9069
Rp9070
(I1
(I2
tp9071
g11
I00
(lp9072
S'Agusti'
p9073
aNatp9074
bag1
(g2
(I0
tp9075
g4
tp9076
Rp9077
(I1
(I2
tp9078
g11
I00
(lp9079
S'primat'
p9080
aNatp9081
bag1
(g2
(I0
tp9082
g4
tp9083
Rp9084
(I1
(I2
tp9085
g11
I00
(lp9086
S'differenti'
p9087
aNatp9088
bag1
(g2
(I0
tp9089
g4
tp9090
Rp9091
(I1
(I2
tp9092
g11
I00
(lp9093
S'redistribut'
p9094
aNatp9095
bag1
(g2
(I0
tp9096
g4
tp9097
Rp9098
(I1
(I2
tp9099
g11
I00
(lp9100
S'Bauschs'
p9101
aNatp9102
bag1
(g2
(I0
tp9103
g4
tp9104
Rp9105
(I1
(I2
tp9106
g11
I00
(lp9107
S'210000'
p9108
aNatp9109
bag1
(g2
(I0
tp9110
g4
tp9111
Rp9112
(I1
(I2
tp9113
g11
I00
(lp9114
S'conclav'
p9115
aNatp9116
bag1
(g2
(I0
tp9117
g4
tp9118
Rp9119
(I1
(I2
tp9120
g11
I00
(lp9121
S'Petronios'
p9122
aNatp9123
bag1
(g2
(I0
tp9124
g4
tp9125
Rp9126
(I1
(I2
tp9127
g11
I00
(lp9128
S'Kovind'
p9129
aNatp9130
bag1
(g2
(I0
tp9131
g4
tp9132
Rp9133
(I1
(I2
tp9134
g11
I00
(lp9135
S'LagosPhoto'
p9136
aNatp9137
bag1
(g2
(I0
tp9138
g4
tp9139
Rp9140
(I1
(I2
tp9141
g11
I00
(lp9142
S'suffrag'
p9143
aNatp9144
bag1
(g2
(I0
tp9145
g4
tp9146
Rp9147
(I1
(I2
tp9148
g11
I00
(lp9149
S'Onaodowan'
p9150
aNatp9151
bag1
(g2
(I0
tp9152
g4
tp9153
Rp9154
(I1
(I2
tp9155
g11
I00
(lp9156
S'Symphonys'
p9157
aNatp9158
bag1
(g2
(I0
tp9159
g4
tp9160
Rp9161
(I1
(I2
tp9162
g11
I00
(lp9163
S'carn'
p9164
aNatp9165
bag1
(g2
(I0
tp9166
g4
tp9167
Rp9168
(I1
(I2
tp9169
g11
I00
(lp9170
S'masterli'
p9171
aNatp9172
bag1
(g2
(I0
tp9173
g4
tp9174
Rp9175
(I1
(I2
tp9176
g11
I00
(lp9177
S'Kelela'
p9178
aNatp9179
bag1
(g2
(I0
tp9180
g4
tp9181
Rp9182
(I1
(I2
tp9183
g11
I00
(lp9184
S'recertifi'
p9185
aNatp9186
bag1
(g2
(I0
tp9187
g4
tp9188
Rp9189
(I1
(I2
tp9190
g11
I00
(lp9191
S'asymmetr'
p9192
aNatp9193
bag1
(g2
(I0
tp9194
g4
tp9195
Rp9196
(I1
(I2
tp9197
g11
I00
(lp9198
S'300th'
p9199
aNatp9200
bag1
(g2
(I0
tp9201
g4
tp9202
Rp9203
(I1
(I2
tp9204
g11
I00
(lp9205
S'slavehold'
p9206
aNatp9207
bag1
(g2
(I0
tp9208
g4
tp9209
Rp9210
(I1
(I2
tp9211
g11
I00
(lp9212
S'20-week'
p9213
aNatp9214
bag1
(g2
(I0
tp9215
g4
tp9216
Rp9217
(I1
(I2
tp9218
g11
I00
(lp9219
S'heriti'
p9220
aNatp9221
bag1
(g2
(I0
tp9222
g4
tp9223
Rp9224
(I1
(I2
tp9225
g11
I00
(lp9226
S'patronag'
p9227
aNatp9228
bag1
(g2
(I0
tp9229
g4
tp9230
Rp9231
(I1
(I2
tp9232
g11
I00
(lp9233
S'Volksbuhne'
p9234
aNatp9235
bag1
(g2
(I0
tp9236
g4
tp9237
Rp9238
(I1
(I2
tp9239
g11
I00
(lp9240
S'2500HD'
p9241
aNatp9242
bag1
(g2
(I0
tp9243
g4
tp9244
Rp9245
(I1
(I2
tp9246
g11
I00
(lp9247
S'298'
p9248
aNatp9249
bag1
(g2
(I0
tp9250
g4
tp9251
Rp9252
(I1
(I2
tp9253
g11
I00
(lp9254
S'1705'
p9255
aNatp9256
bag1
(g2
(I0
tp9257
g4
tp9258
Rp9259
(I1
(I2
tp9260
g11
I00
(lp9261
S'gossipi'
p9262
aNatp9263
bag1
(g2
(I0
tp9264
g4
tp9265
Rp9266
(I1
(I2
tp9267
g11
I00
(lp9268
S'Sanctimony'
p9269
aNatp9270
bag1
(g2
(I0
tp9271
g4
tp9272
Rp9273
(I1
(I2
tp9274
g11
I00
(lp9275
S'decommiss'
p9276
aNatp9277
bag1
(g2
(I0
tp9278
g4
tp9279
Rp9280
(I1
(I2
tp9281
g11
I00
(lp9282
S'Choire'
p9283
aNatp9284
bag1
(g2
(I0
tp9285
g4
tp9286
Rp9287
(I1
(I2
tp9288
g11
I00
(lp9289
S'139'
p9290
aNatp9291
bag1
(g2
(I0
tp9292
g4
tp9293
Rp9294
(I1
(I2
tp9295
g11
I00
(lp9296
S'unprofit'
p9297
aNatp9298
bag1
(g2
(I0
tp9299
g4
tp9300
Rp9301
(I1
(I2
tp9302
g11
I00
(lp9303
S'Loeras'
p9304
aNatp9305
bag1
(g2
(I0
tp9306
g4
tp9307
Rp9308
(I1
(I2
tp9309
g11
I00
(lp9310
S'economica'
p9311
aNatp9312
bag1
(g2
(I0
tp9313
g4
tp9314
Rp9315
(I1
(I2
tp9316
g11
I00
(lp9317
S'waistlin'
p9318
aNatp9319
bag1
(g2
(I0
tp9320
g4
tp9321
Rp9322
(I1
(I2
tp9323
g11
I00
(lp9324
S'picaresqu'
p9325
aNatp9326
bag1
(g2
(I0
tp9327
g4
tp9328
Rp9329
(I1
(I2
tp9330
g11
I00
(lp9331
S'Brushstroke'
p9332
aNatp9333
bag1
(g2
(I0
tp9334
g4
tp9335
Rp9336
(I1
(I2
tp9337
g11
I00
(lp9338
S'steepli'
p9339
aNatp9340
bag1
(g2
(I0
tp9341
g4
tp9342
Rp9343
(I1
(I2
tp9344
g11
I00
(lp9345
S'crafti'
p9346
aNatp9347
bag1
(g2
(I0
tp9348
g4
tp9349
Rp9350
(I1
(I2
tp9351
g11
I00
(lp9352
S'Dogecoin'
p9353
aNatp9354
bag1
(g2
(I0
tp9355
g4
tp9356
Rp9357
(I1
(I2
tp9358
g11
I00
(lp9359
S'grizzl'
p9360
aNatp9361
bag1
(g2
(I0
tp9362
g4
tp9363
Rp9364
(I1
(I2
tp9365
g11
I00
(lp9366
S'Untermyer'
p9367
aNatp9368
bag1
(g2
(I0
tp9369
g4
tp9370
Rp9371
(I1
(I2
tp9372
g11
I00
(lp9373
S'Big3'
p9374
aNatp9375
bag1
(g2
(I0
tp9376
g4
tp9377
Rp9378
(I1
(I2
tp9379
g11
I00
(lp9380
S'Greilsammer'
p9381
aNatp9382
bag1
(g2
(I0
tp9383
g4
tp9384
Rp9385
(I1
(I2
tp9386
g11
I00
(lp9387
S'19000'
p9388
aNatp9389
bag1
(g2
(I0
tp9390
g4
tp9391
Rp9392
(I1
(I2
tp9393
g11
I00
(lp9394
S'sherri'
p9395
aNatp9396
bag1
(g2
(I0
tp9397
g4
tp9398
Rp9399
(I1
(I2
tp9400
g11
I00
(lp9401
S'136'
p9402
aNatp9403
bag1
(g2
(I0
tp9404
g4
tp9405
Rp9406
(I1
(I2
tp9407
g11
I00
(lp9408
S'repar'
p9409
aNatp9410
bag1
(g2
(I0
tp9411
g4
tp9412
Rp9413
(I1
(I2
tp9414
g11
I00
(lp9415
S'131'
p9416
aNatp9417
bag1
(g2
(I0
tp9418
g4
tp9419
Rp9420
(I1
(I2
tp9421
g11
I00
(lp9422
S'doubli'
p9423
aNatp9424
bag1
(g2
(I0
tp9425
g4
tp9426
Rp9427
(I1
(I2
tp9428
g11
I00
(lp9429
S'51-49'
p9430
aNatp9431
bag1
(g2
(I0
tp9432
g4
tp9433
Rp9434
(I1
(I2
tp9435
g11
I00
(lp9436
S'Shainman'
p9437
aNatp9438
bag1
(g2
(I0
tp9439
g4
tp9440
Rp9441
(I1
(I2
tp9442
g11
I00
(lp9443
S'1820'
p9444
aNatp9445
bag1
(g2
(I0
tp9446
g4
tp9447
Rp9448
(I1
(I2
tp9449
g11
I00
(lp9450
S'Kirkwoods'
p9451
aNatp9452
bag1
(g2
(I0
tp9453
g4
tp9454
Rp9455
(I1
(I2
tp9456
g11
I00
(lp9457
S'A.F.L.-C.I.O'
p9458
aNatp9459
bag1
(g2
(I0
tp9460
g4
tp9461
Rp9462
(I1
(I2
tp9463
g11
I00
(lp9464
S'irat'
p9465
aNatp9466
bag1
(g2
(I0
tp9467
g4
tp9468
Rp9469
(I1
(I2
tp9470
g11
I00
(lp9471
S'blowfli'
p9472
aNatp9473
bag1
(g2
(I0
tp9474
g4
tp9475
Rp9476
(I1
(I2
tp9477
g11
I00
(lp9478
S'Ohtanis'
p9479
aNatp9480
bag1
(g2
(I0
tp9481
g4
tp9482
Rp9483
(I1
(I2
tp9484
g11
I00
(lp9485
S'troublesom'
p9486
aNatp9487
bag1
(g2
(I0
tp9488
g4
tp9489
Rp9490
(I1
(I2
tp9491
g11
I00
(lp9492
S'Kitamuras'
p9493
aNatp9494
bag1
(g2
(I0
tp9495
g4
tp9496
Rp9497
(I1
(I2
tp9498
g11
I00
(lp9499
S'savageri'
p9500
aNatp9501
bag1
(g2
(I0
tp9502
g4
tp9503
Rp9504
(I1
(I2
tp9505
g11
I00
(lp9506
S'2023'
p9507
aNatp9508
bag1
(g2
(I0
tp9509
g4
tp9510
Rp9511
(I1
(I2
tp9512
g11
I00
(lp9513
S'gemeo'
p9514
aNatp9515
bag1
(g2
(I0
tp9516
g4
tp9517
Rp9518
(I1
(I2
tp9519
g11
I00
(lp9520
S'Goghs'
p9521
aNatp9522
bag1
(g2
(I0
tp9523
g4
tp9524
Rp9525
(I1
(I2
tp9526
g11
I00
(lp9527
S'counterintellig'
p9528
aNatp9529
bag1
(g2
(I0
tp9530
g4
tp9531
Rp9532
(I1
(I2
tp9533
g11
I00
(lp9534
S'unremark'
p9535
aNatp9536
bag1
(g2
(I0
tp9537
g4
tp9538
Rp9539
(I1
(I2
tp9540
g11
I00
(lp9541
S'abridg'
p9542
aNatp9543
bag1
(g2
(I0
tp9544
g4
tp9545
Rp9546
(I1
(I2
tp9547
g11
I00
(lp9548
S'Jordskott'
p9549
aNatp9550
bag1
(g2
(I0
tp9551
g4
tp9552
Rp9553
(I1
(I2
tp9554
g11
I00
(lp9555
S'37-year'
p9556
aNatp9557
bag1
(g2
(I0
tp9558
g4
tp9559
Rp9560
(I1
(I2
tp9561
g11
I00
(lp9562
S'sleepov'
p9563
aNatp9564
bag1
(g2
(I0
tp9565
g4
tp9566
Rp9567
(I1
(I2
tp9568
g11
I00
(lp9569
S'acryl'
p9570
aNatp9571
bag1
(g2
(I0
tp9572
g4
tp9573
Rp9574
(I1
(I2
tp9575
g11
I00
(lp9576
S'farcic'
p9577
aNatp9578
bag1
(g2
(I0
tp9579
g4
tp9580
Rp9581
(I1
(I2
tp9582
g11
I00
(lp9583
S'217'
p9584
aNatp9585
bag1
(g2
(I0
tp9586
g4
tp9587
Rp9588
(I1
(I2
tp9589
g11
I00
(lp9590
S'1775'
p9591
aNatp9592
bag1
(g2
(I0
tp9593
g4
tp9594
Rp9595
(I1
(I2
tp9596
g11
I00
(lp9597
S'Kumail'
p9598
aNatp9599
bag1
(g2
(I0
tp9600
g4
tp9601
Rp9602
(I1
(I2
tp9603
g11
I00
(lp9604
S'infrar'
p9605
aNatp9606
bag1
(g2
(I0
tp9607
g4
tp9608
Rp9609
(I1
(I2
tp9610
g11
I00
(lp9611
S'primit'
p9612
aNatp9613
bag1
(g2
(I0
tp9614
g4
tp9615
Rp9616
(I1
(I2
tp9617
g11
I00
(lp9618
S'Lofven'
p9619
aNatp9620
bag1
(g2
(I0
tp9621
g4
tp9622
Rp9623
(I1
(I2
tp9624
g11
I00
(lp9625
S'Itll'
p9626
aNatp9627
bag1
(g2
(I0
tp9628
g4
tp9629
Rp9630
(I1
(I2
tp9631
g11
I00
(lp9632
S'trounc'
p9633
aNatp9634
bag1
(g2
(I0
tp9635
g4
tp9636
Rp9637
(I1
(I2
tp9638
g11
I00
(lp9639
S'Batalis'
p9640
aNatp9641
bag1
(g2
(I0
tp9642
g4
tp9643
Rp9644
(I1
(I2
tp9645
g11
I00
(lp9646
S'dond'
p9647
aNatp9648
bag1
(g2
(I0
tp9649
g4
tp9650
Rp9651
(I1
(I2
tp9652
g11
I00
(lp9653
S'raspi'
p9654
aNatp9655
bag1
(g2
(I0
tp9656
g4
tp9657
Rp9658
(I1
(I2
tp9659
g11
I00
(lp9660
S'Germanistic'
p9661
aNatp9662
bag1
(g2
(I0
tp9663
g4
tp9664
Rp9665
(I1
(I2
tp9666
g11
I00
(lp9667
S'Korakrit'
p9668
aNatp9669
bag1
(g2
(I0
tp9670
g4
tp9671
Rp9672
(I1
(I2
tp9673
g11
I00
(lp9674
S'pineappl'
p9675
aNatp9676
bag1
(g2
(I0
tp9677
g4
tp9678
Rp9679
(I1
(I2
tp9680
g11
I00
(lp9681
S'seami'
p9682
aNatp9683
bag1
(g2
(I0
tp9684
g4
tp9685
Rp9686
(I1
(I2
tp9687
g11
I00
(lp9688
S'Ryzik'
p9689
aNatp9690
bag1
(g2
(I0
tp9691
g4
tp9692
Rp9693
(I1
(I2
tp9694
g11
I00
(lp9695
S'supercentenarian'
p9696
aNatp9697
bag1
(g2
(I0
tp9698
g4
tp9699
Rp9700
(I1
(I2
tp9701
g11
I00
(lp9702
S'Castoldi'
p9703
aNatp9704
bag1
(g2
(I0
tp9705
g4
tp9706
Rp9707
(I1
(I2
tp9708
g11
I00
(lp9709
S'unrestrict'
p9710
aNatp9711
bag1
(g2
(I0
tp9712
g4
tp9713
Rp9714
(I1
(I2
tp9715
g11
I00
(lp9716
S'Whilby'
p9717
aNatp9718
bag1
(g2
(I0
tp9719
g4
tp9720
Rp9721
(I1
(I2
tp9722
g11
I00
(lp9723
S'Marchionna'
p9724
aNatp9725
bag1
(g2
(I0
tp9726
g4
tp9727
Rp9728
(I1
(I2
tp9729
g11
I00
(lp9730
S'550000'
p9731
aNatp9732
bag1
(g2
(I0
tp9733
g4
tp9734
Rp9735
(I1
(I2
tp9736
g11
I00
(lp9737
S'Communisms'
p9738
aNatp9739
bag1
(g2
(I0
tp9740
g4
tp9741
Rp9742
(I1
(I2
tp9743
g11
I00
(lp9744
S'glossari'
p9745
aNatp9746
bag1
(g2
(I0
tp9747
g4
tp9748
Rp9749
(I1
(I2
tp9750
g11
I00
(lp9751
S'10-episode'
p9752
aNatp9753
bag1
(g2
(I0
tp9754
g4
tp9755
Rp9756
(I1
(I2
tp9757
g11
I00
(lp9758
S'choix'
p9759
aNatp9760
bag1
(g2
(I0
tp9761
g4
tp9762
Rp9763
(I1
(I2
tp9764
g11
I00
(lp9765
S'Bronxs'
p9766
aNatp9767
bag1
(g2
(I0
tp9768
g4
tp9769
Rp9770
(I1
(I2
tp9771
g11
I00
(lp9772
S'insolv'
p9773
aNatp9774
bag1
(g2
(I0
tp9775
g4
tp9776
Rp9777
(I1
(I2
tp9778
g11
I00
(lp9779
S'vertic'
p9780
aNatp9781
bag1
(g2
(I0
tp9782
g4
tp9783
Rp9784
(I1
(I2
tp9785
g11
I00
(lp9786
S'Albees'
p9787
aNatp9788
bag1
(g2
(I0
tp9789
g4
tp9790
Rp9791
(I1
(I2
tp9792
g11
I00
(lp9793
S'14-5'
p9794
aNatp9795
bag1
(g2
(I0
tp9796
g4
tp9797
Rp9798
(I1
(I2
tp9799
g11
I00
(lp9800
S'footbridg'
p9801
aNatp9802
bag1
(g2
(I0
tp9803
g4
tp9804
Rp9805
(I1
(I2
tp9806
g11
I00
(lp9807
S'raspberri'
p9808
aNatp9809
bag1
(g2
(I0
tp9810
g4
tp9811
Rp9812
(I1
(I2
tp9813
g11
I00
(lp9814
S'Kantorowicz'
p9815
aNatp9816
bag1
(g2
(I0
tp9817
g4
tp9818
Rp9819
(I1
(I2
tp9820
g11
I00
(lp9821
S'zani'
p9822
aNatp9823
bag1
(g2
(I0
tp9824
g4
tp9825
Rp9826
(I1
(I2
tp9827
g11
I00
(lp9828
S'Nanjiani'
p9829
aNatp9830
bag1
(g2
(I0
tp9831
g4
tp9832
Rp9833
(I1
(I2
tp9834
g11
I00
(lp9835
S'sickl'
p9836
aNatp9837
bag1
(g2
(I0
tp9838
g4
tp9839
Rp9840
(I1
(I2
tp9841
g11
I00
(lp9842
S'reactionari'
p9843
aNatp9844
bag1
(g2
(I0
tp9845
g4
tp9846
Rp9847
(I1
(I2
tp9848
g11
I00
(lp9849
S'1700'
p9850
aNatp9851
bag1
(g2
(I0
tp9852
g4
tp9853
Rp9854
(I1
(I2
tp9855
g11
I00
(lp9856
S'seedeat'
p9857
aNatp9858
bag1
(g2
(I0
tp9859
g4
tp9860
Rp9861
(I1
(I2
tp9862
g11
I00
(lp9863
S'inconceiv'
p9864
aNatp9865
bag1
(g2
(I0
tp9866
g4
tp9867
Rp9868
(I1
(I2
tp9869
g11
I00
(lp9870
S'repurchas'
p9871
aNatp9872
bag1
(g2
(I0
tp9873
g4
tp9874
Rp9875
(I1
(I2
tp9876
g11
I00
(lp9877
S'43017'
p9878
aNatp9879
bag1
(g2
(I0
tp9880
g4
tp9881
Rp9882
(I1
(I2
tp9883
g11
I00
(lp9884
S'Eduarda'
p9885
aNatp9886
bag1
(g2
(I0
tp9887
g4
tp9888
Rp9889
(I1
(I2
tp9890
g11
I00
(lp9891
S'geeki'
p9892
aNatp9893
bag1
(g2
(I0
tp9894
g4
tp9895
Rp9896
(I1
(I2
tp9897
g11
I00
(lp9898
S'construir'
p9899
aNatp9900
bag1
(g2
(I0
tp9901
g4
tp9902
Rp9903
(I1
(I2
tp9904
g11
I00
(lp9905
S'Herzogs'
p9906
aNatp9907
bag1
(g2
(I0
tp9908
g4
tp9909
Rp9910
(I1
(I2
tp9911
g11
I00
(lp9912
S'Shikumen'
p9913
aNatp9914
bag1
(g2
(I0
tp9915
g4
tp9916
Rp9917
(I1
(I2
tp9918
g11
I00
(lp9919
S'decertifi'
p9920
aNatp9921
bag1
(g2
(I0
tp9922
g4
tp9923
Rp9924
(I1
(I2
tp9925
g11
I00
(lp9926
S'Islote'
p9927
aNatp9928
bag1
(g2
(I0
tp9929
g4
tp9930
Rp9931
(I1
(I2
tp9932
g11
I00
(lp9933
S'Medicitv'
p9934
aNatp9935
bag1
(g2
(I0
tp9936
g4
tp9937
Rp9938
(I1
(I2
tp9939
g11
I00
(lp9940
S'Neurocore'
p9941
aNatp9942
bag1
(g2
(I0
tp9943
g4
tp9944
Rp9945
(I1
(I2
tp9946
g11
I00
(lp9947
S'CKs'
p9948
aNatp9949
bag1
(g2
(I0
tp9950
g4
tp9951
Rp9952
(I1
(I2
tp9953
g11
I00
(lp9954
S'scruffi'
p9955
aNatp9956
bag1
(g2
(I0
tp9957
g4
tp9958
Rp9959
(I1
(I2
tp9960
g11
I00
(lp9961
S'decapit'
p9962
aNatp9963
bag1
(g2
(I0
tp9964
g4
tp9965
Rp9966
(I1
(I2
tp9967
g11
I00
(lp9968
S'Luhrmanns'
p9969
aNatp9970
bag1
(g2
(I0
tp9971
g4
tp9972
Rp9973
(I1
(I2
tp9974
g11
I00
(lp9975
S'tailgat'
p9976
aNatp9977
bag1
(g2
(I0
tp9978
g4
tp9979
Rp9980
(I1
(I2
tp9981
g11
I00
(lp9982
S'bluntli'
p9983
aNatp9984
bag1
(g2
(I0
tp9985
g4
tp9986
Rp9987
(I1
(I2
tp9988
g11
I00
(lp9989
S'42317'
p9990
aNatp9991
bag1
(g2
(I0
tp9992
g4
tp9993
Rp9994
(I1
(I2
tp9995
g11
I00
(lp9996
S'neoliber'
p9997
aNatp9998
bag1
(g2
(I0
tp9999
g4
tp10000
Rp10001
(I1
(I2
tp10002
g11
I00
(lp10003
S'throe'
p10004
aNatp10005
bag1
(g2
(I0
tp10006
g4
tp10007
Rp10008
(I1
(I2
tp10009
g11
I00
(lp10010
S'Toscaninis'
p10011
aNatp10012
bag1
(g2
(I0
tp10013
g4
tp10014
Rp10015
(I1
(I2
tp10016
g11
I00
(lp10017
S'unregist'
p10018
aNatp10019
bag1
(g2
(I0
tp10020
g4
tp10021
Rp10022
(I1
(I2
tp10023
g11
I00
(lp10024
S'unfaith'
p10025
aNatp10026
bag1
(g2
(I0
tp10027
g4
tp10028
Rp10029
(I1
(I2
tp10030
g11
I00
(lp10031
S'Ziyatdinova'
p10032
aNatp10033
bag1
(g2
(I0
tp10034
g4
tp10035
Rp10036
(I1
(I2
tp10037
g11
I00
(lp10038
S'ultraconserv'
p10039
aNatp10040
bag1
(g2
(I0
tp10041
g4
tp10042
Rp10043
(I1
(I2
tp10044
g11
I00
(lp10045
S'intramur'
p10046
aNatp10047
bag1
(g2
(I0
tp10048
g4
tp10049
Rp10050
(I1
(I2
tp10051
g11
I00
(lp10052
S'deflat'
p10053
aNatp10054
bag1
(g2
(I0
tp10055
g4
tp10056
Rp10057
(I1
(I2
tp10058
g11
I00
(lp10059
S'Taghkanic'
p10060
aNatp10061
bag1
(g2
(I0
tp10062
g4
tp10063
Rp10064
(I1
(I2
tp10065
g11
I00
(lp10066
S'sleaz'
p10067
aNatp10068
bag1
(g2
(I0
tp10069
g4
tp10070
Rp10071
(I1
(I2
tp10072
g11
I00
(lp10073
S'Taika'
p10074
aNatp10075
bag1
(g2
(I0
tp10076
g4
tp10077
Rp10078
(I1
(I2
tp10079
g11
I00
(lp10080
S'175000'
p10081
aNatp10082
bag1
(g2
(I0
tp10083
g4
tp10084
Rp10085
(I1
(I2
tp10086
g11
I00
(lp10087
S'doyenn'
p10088
aNatp10089
bag1
(g2
(I0
tp10090
g4
tp10091
Rp10092
(I1
(I2
tp10093
g11
I00
(lp10094
S'Haitis'
p10095
aNatp10096
bag1
(g2
(I0
tp10097
g4
tp10098
Rp10099
(I1
(I2
tp10100
g11
I00
(lp10101
S'subsum'
p10102
aNatp10103
bag1
(g2
(I0
tp10104
g4
tp10105
Rp10106
(I1
(I2
tp10107
g11
I00
(lp10108
S'Wertkin'
p10109
aNatp10110
bag1
(g2
(I0
tp10111
g4
tp10112
Rp10113
(I1
(I2
tp10114
g11
I00
(lp10115
S'microphon'
p10116
aNatp10117
bag1
(g2
(I0
tp10118
g4
tp10119
Rp10120
(I1
(I2
tp10121
g11
I00
(lp10122
S'rearrang'
p10123
aNatp10124
bag1
(g2
(I0
tp10125
g4
tp10126
Rp10127
(I1
(I2
tp10128
g11
I00
(lp10129
S'untap'
p10130
aNatp10131
bag1
(g2
(I0
tp10132
g4
tp10133
Rp10134
(I1
(I2
tp10135
g11
I00
(lp10136
S'Lynchs'
p10137
aNatp10138
bag1
(g2
(I0
tp10139
g4
tp10140
Rp10141
(I1
(I2
tp10142
g11
I00
(lp10143
S'euphor'
p10144
aNatp10145
bag1
(g2
(I0
tp10146
g4
tp10147
Rp10148
(I1
(I2
tp10149
g11
I00
(lp10150
S'typefac'
p10151
aNatp10152
bag1
(g2
(I0
tp10153
g4
tp10154
Rp10155
(I1
(I2
tp10156
g11
I00
(lp10157
S'layov'
p10158
aNatp10159
bag1
(g2
(I0
tp10160
g4
tp10161
Rp10162
(I1
(I2
tp10163
g11
I00
(lp10164
S'malleabl'
p10165
aNatp10166
bag1
(g2
(I0
tp10167
g4
tp10168
Rp10169
(I1
(I2
tp10170
g11
I00
(lp10171
S'S90'
p10172
aNatp10173
bag1
(g2
(I0
tp10174
g4
tp10175
Rp10176
(I1
(I2
tp10177
g11
I00
(lp10178
S'Boujee'
p10179
aNatp10180
bag1
(g2
(I0
tp10181
g4
tp10182
Rp10183
(I1
(I2
tp10184
g11
I00
(lp10185
S'Nasralla'
p10186
aNatp10187
bag1
(g2
(I0
tp10188
g4
tp10189
Rp10190
(I1
(I2
tp10191
g11
I00
(lp10192
S'bylin'
p10193
aNatp10194
bag1
(g2
(I0
tp10195
g4
tp10196
Rp10197
(I1
(I2
tp10198
g11
I00
(lp10199
S'Beirendonck'
p10200
aNatp10201
bag1
(g2
(I0
tp10202
g4
tp10203
Rp10204
(I1
(I2
tp10205
g11
I00
(lp10206
S'Holtermanns'
p10207
aNatp10208
bag1
(g2
(I0
tp10209
g4
tp10210
Rp10211
(I1
(I2
tp10212
g11
I00
(lp10213
S'ineffici'
p10214
aNatp10215
bag1
(g2
(I0
tp10216
g4
tp10217
Rp10218
(I1
(I2
tp10219
g11
I00
(lp10220
S'arduou'
p10221
aNatp10222
bag1
(g2
(I0
tp10223
g4
tp10224
Rp10225
(I1
(I2
tp10226
g11
I00
(lp10227
S'sobr'
p10228
aNatp10229
bag1
(g2
(I0
tp10230
g4
tp10231
Rp10232
(I1
(I2
tp10233
g11
I00
(lp10234
S'alor'
p10235
aNatp10236
bag1
(g2
(I0
tp10237
g4
tp10238
Rp10239
(I1
(I2
tp10240
g11
I00
(lp10241
S'gubernatori'
p10242
aNatp10243
bag1
(g2
(I0
tp10244
g4
tp10245
Rp10246
(I1
(I2
tp10247
g11
I00
(lp10248
S'Whove'
p10249
aNatp10250
bag1
(g2
(I0
tp10251
g4
tp10252
Rp10253
(I1
(I2
tp10254
g11
I00
(lp10255
S'presidentiel'
p10256
aNatp10257
bag1
(g2
(I0
tp10258
g4
tp10259
Rp10260
(I1
(I2
tp10261
g11
I00
(lp10262
S'1450'
p10263
aNatp10264
bag1
(g2
(I0
tp10265
g4
tp10266
Rp10267
(I1
(I2
tp10268
g11
I00
(lp10269
S'Unburied'
p10270
aNatp10271
bag1
(g2
(I0
tp10272
g4
tp10273
Rp10274
(I1
(I2
tp10275
g11
I00
(lp10276
S'valv'
p10277
aNatp10278
bag1
(g2
(I0
tp10279
g4
tp10280
Rp10281
(I1
(I2
tp10282
g11
I00
(lp10283
S'34-28'
p10284
aNatp10285
bag1
(g2
(I0
tp10286
g4
tp10287
Rp10288
(I1
(I2
tp10289
g11
I00
(lp10290
S'jealousi'
p10291
aNatp10292
bag1
(g2
(I0
tp10293
g4
tp10294
Rp10295
(I1
(I2
tp10296
g11
I00
(lp10297
S'manakin'
p10298
aNatp10299
bag1
(g2
(I0
tp10300
g4
tp10301
Rp10302
(I1
(I2
tp10303
g11
I00
(lp10304
S'necklin'
p10305
aNatp10306
bag1
(g2
(I0
tp10307
g4
tp10308
Rp10309
(I1
(I2
tp10310
g11
I00
(lp10311
S'unwork'
p10312
aNatp10313
bag1
(g2
(I0
tp10314
g4
tp10315
Rp10316
(I1
(I2
tp10317
g11
I00
(lp10318
S'38000'
p10319
aNatp10320
bag1
(g2
(I0
tp10321
g4
tp10322
Rp10323
(I1
(I2
tp10324
g11
I00
(lp10325
S'Wintrich'
p10326
aNatp10327
bag1
(g2
(I0
tp10328
g4
tp10329
Rp10330
(I1
(I2
tp10331
g11
I00
(lp10332
S'nonvot'
p10333
aNatp10334
bag1
(g2
(I0
tp10335
g4
tp10336
Rp10337
(I1
(I2
tp10338
g11
I00
(lp10339
S'centrifug'
p10340
aNatp10341
bag1
(g2
(I0
tp10342
g4
tp10343
Rp10344
(I1
(I2
tp10345
g11
I00
(lp10346
S'Paskova'
p10347
aNatp10348
bag1
(g2
(I0
tp10349
g4
tp10350
Rp10351
(I1
(I2
tp10352
g11
I00
(lp10353
S'propuls'
p10354
aNatp10355
bag1
(g2
(I0
tp10356
g4
tp10357
Rp10358
(I1
(I2
tp10359
g11
I00
(lp10360
S'20-game'
p10361
aNatp10362
bag1
(g2
(I0
tp10363
g4
tp10364
Rp10365
(I1
(I2
tp10366
g11
I00
(lp10367
S'G80'
p10368
aNatp10369
bag1
(g2
(I0
tp10370
g4
tp10371
Rp10372
(I1
(I2
tp10373
g11
I00
(lp10374
S'honorif'
p10375
aNatp10376
bag1
(g2
(I0
tp10377
g4
tp10378
Rp10379
(I1
(I2
tp10380
g11
I00
(lp10381
S'anarch'
p10382
aNatp10383
bag1
(g2
(I0
tp10384
g4
tp10385
Rp10386
(I1
(I2
tp10387
g11
I00
(lp10388
S'Venices'
p10389
aNatp10390
bag1
(g2
(I0
tp10391
g4
tp10392
Rp10393
(I1
(I2
tp10394
g11
I00
(lp10395
S'codifi'
p10396
aNatp10397
bag1
(g2
(I0
tp10398
g4
tp10399
Rp10400
(I1
(I2
tp10401
g11
I00
(lp10402
S'inact'
p10403
aNatp10404
bag1
(g2
(I0
tp10405
g4
tp10406
Rp10407
(I1
(I2
tp10408
g11
I00
(lp10409
S'whichev'
p10410
aNatp10411
bag1
(g2
(I0
tp10412
g4
tp10413
Rp10414
(I1
(I2
tp10415
g11
I00
(lp10416
S'reclassifi'
p10417
aNatp10418
bag1
(g2
(I0
tp10419
g4
tp10420
Rp10421
(I1
(I2
tp10422
g11
I00
(lp10423
S'fregola'
p10424
aNatp10425
bag1
(g2
(I0
tp10426
g4
tp10427
Rp10428
(I1
(I2
tp10429
g11
I00
(lp10430
S'Tidjane'
p10431
aNatp10432
bag1
(g2
(I0
tp10433
g4
tp10434
Rp10435
(I1
(I2
tp10436
g11
I00
(lp10437
S'Napheesa'
p10438
aNatp10439
bag1
(g2
(I0
tp10440
g4
tp10441
Rp10442
(I1
(I2
tp10443
g11
I00
(lp10444
S'irreplac'
p10445
aNatp10446
bag1
(g2
(I0
tp10447
g4
tp10448
Rp10449
(I1
(I2
tp10450
g11
I00
(lp10451
S'Klams'
p10452
aNatp10453
bag1
(g2
(I0
tp10454
g4
tp10455
Rp10456
(I1
(I2
tp10457
g11
I00
(lp10458
S'Serenissima'
p10459
aNatp10460
bag1
(g2
(I0
tp10461
g4
tp10462
Rp10463
(I1
(I2
tp10464
g11
I00
(lp10465
S'Austrias'
p10466
aNatp10467
bag1
(g2
(I0
tp10468
g4
tp10469
Rp10470
(I1
(I2
tp10471
g11
I00
(lp10472
S'muddl'
p10473
aNatp10474
bag1
(g2
(I0
tp10475
g4
tp10476
Rp10477
(I1
(I2
tp10478
g11
I00
(lp10479
S'Verdis'
p10480
aNatp10481
bag1
(g2
(I0
tp10482
g4
tp10483
Rp10484
(I1
(I2
tp10485
g11
I00
(lp10486
S'Lavallade'
p10487
aNatp10488
bag1
(g2
(I0
tp10489
g4
tp10490
Rp10491
(I1
(I2
tp10492
g11
I00
(lp10493
S'Katzs'
p10494
aNatp10495
bag1
(g2
(I0
tp10496
g4
tp10497
Rp10498
(I1
(I2
tp10499
g11
I00
(lp10500
S'uninhibit'
p10501
aNatp10502
bag1
(g2
(I0
tp10503
g4
tp10504
Rp10505
(I1
(I2
tp10506
g11
I00
(lp10507
S'138'
p10508
aNatp10509
bag1
(g2
(I0
tp10510
g4
tp10511
Rp10512
(I1
(I2
tp10513
g11
I00
(lp10514
S'Chrystia'
p10515
aNatp10516
bag1
(g2
(I0
tp10517
g4
tp10518
Rp10519
(I1
(I2
tp10520
g11
I00
(lp10521
S'Welless'
p10522
aNatp10523
bag1
(g2
(I0
tp10524
g4
tp10525
Rp10526
(I1
(I2
tp10527
g11
I00
(lp10528
S'nefari'
p10529
aNatp10530
bag1
(g2
(I0
tp10531
g4
tp10532
Rp10533
(I1
(I2
tp10534
g11
I00
(lp10535
S'fotografo'
p10536
aNatp10537
bag1
(g2
(I0
tp10538
g4
tp10539
Rp10540
(I1
(I2
tp10541
g11
I00
(lp10542
S'borek'
p10543
aNatp10544
bag1
(g2
(I0
tp10545
g4
tp10546
Rp10547
(I1
(I2
tp10548
g11
I00
(lp10549
S'irrepress'
p10550
aNatp10551
bag1
(g2
(I0
tp10552
g4
tp10553
Rp10554
(I1
(I2
tp10555
g11
I00
(lp10556
S'Hayness'
p10557
aNatp10558
bag1
(g2
(I0
tp10559
g4
tp10560
Rp10561
(I1
(I2
tp10562
g11
I00
(lp10563
S'irration'
p10564
aNatp10565
bag1
(g2
(I0
tp10566
g4
tp10567
Rp10568
(I1
(I2
tp10569
g11
I00
(lp10570
S'reproduc'
p10571
aNatp10572
bag1
(g2
(I0
tp10573
g4
tp10574
Rp10575
(I1
(I2
tp10576
g11
I00
(lp10577
S'reciproc'
p10578
aNatp10579
bag1
(g2
(I0
tp10580
g4
tp10581
Rp10582
(I1
(I2
tp10583
g11
I00
(lp10584
S'unacknowledg'
p10585
aNatp10586
bag1
(g2
(I0
tp10587
g4
tp10588
Rp10589
(I1
(I2
tp10590
g11
I00
(lp10591
S'Grindeanu'
p10592
aNatp10593
bag1
(g2
(I0
tp10594
g4
tp10595
Rp10596
(I1
(I2
tp10597
g11
I00
(lp10598
S'Shamsies'
p10599
aNatp10600
bag1
(g2
(I0
tp10601
g4
tp10602
Rp10603
(I1
(I2
tp10604
g11
I00
(lp10605
S'backstori'
p10606
aNatp10607
bag1
(g2
(I0
tp10608
g4
tp10609
Rp10610
(I1
(I2
tp10611
g11
I00
(lp10612
S'Okwui'
p10613
aNatp10614
bag1
(g2
(I0
tp10615
g4
tp10616
Rp10617
(I1
(I2
tp10618
g11
I00
(lp10619
S'Hyltin'
p10620
aNatp10621
bag1
(g2
(I0
tp10622
g4
tp10623
Rp10624
(I1
(I2
tp10625
g11
I00
(lp10626
S'nestl'
p10627
aNatp10628
bag1
(g2
(I0
tp10629
g4
tp10630
Rp10631
(I1
(I2
tp10632
g11
I00
(lp10633
S'freshwat'
p10634
aNatp10635
bag1
(g2
(I0
tp10636
g4
tp10637
Rp10638
(I1
(I2
tp10639
g11
I00
(lp10640
S'creeksid'
p10641
aNatp10642
bag1
(g2
(I0
tp10643
g4
tp10644
Rp10645
(I1
(I2
tp10646
g11
I00
(lp10647
S'witchi'
p10648
aNatp10649
bag1
(g2
(I0
tp10650
g4
tp10651
Rp10652
(I1
(I2
tp10653
g11
I00
(lp10654
S'Yoncheva'
p10655
aNatp10656
bag1
(g2
(I0
tp10657
g4
tp10658
Rp10659
(I1
(I2
tp10660
g11
I00
(lp10661
S'Riverss'
p10662
aNatp10663
bag1
(g2
(I0
tp10664
g4
tp10665
Rp10666
(I1
(I2
tp10667
g11
I00
(lp10668
S'waffl'
p10669
aNatp10670
bag1
(g2
(I0
tp10671
g4
tp10672
Rp10673
(I1
(I2
tp10674
g11
I00
(lp10675
S'miseri'
p10676
aNatp10677
bag1
(g2
(I0
tp10678
g4
tp10679
Rp10680
(I1
(I2
tp10681
g11
I00
(lp10682
S'tenaci'
p10683
aNatp10684
bag1
(g2
(I0
tp10685
g4
tp10686
Rp10687
(I1
(I2
tp10688
g11
I00
(lp10689
S'spectacularli'
p10690
aNatp10691
bag1
(g2
(I0
tp10692
g4
tp10693
Rp10694
(I1
(I2
tp10695
g11
I00
(lp10696
S'Brunis'
p10697
aNatp10698
bag1
(g2
(I0
tp10699
g4
tp10700
Rp10701
(I1
(I2
tp10702
g11
I00
(lp10703
S'experienti'
p10704
aNatp10705
bag1
(g2
(I0
tp10706
g4
tp10707
Rp10708
(I1
(I2
tp10709
g11
I00
(lp10710
S'Pragues'
p10711
aNatp10712
bag1
(g2
(I0
tp10713
g4
tp10714
Rp10715
(I1
(I2
tp10716
g11
I00
(lp10717
S'classif'
p10718
aNatp10719
bag1
(g2
(I0
tp10720
g4
tp10721
Rp10722
(I1
(I2
tp10723
g11
I00
(lp10724
S'OddFellows'
p10725
aNatp10726
bag1
(g2
(I0
tp10727
g4
tp10728
Rp10729
(I1
(I2
tp10730
g11
I00
(lp10731
S'Connellys'
p10732
aNatp10733
bag1
(g2
(I0
tp10734
g4
tp10735
Rp10736
(I1
(I2
tp10737
g11
I00
(lp10738
S'daddi'
p10739
aNatp10740
bag1
(g2
(I0
tp10741
g4
tp10742
Rp10743
(I1
(I2
tp10744
g11
I00
(lp10745
S'fallaci'
p10746
aNatp10747
bag1
(g2
(I0
tp10748
g4
tp10749
Rp10750
(I1
(I2
tp10751
g11
I00
(lp10752
S'Gurneys'
p10753
aNatp10754
bag1
(g2
(I0
tp10755
g4
tp10756
Rp10757
(I1
(I2
tp10758
g11
I00
(lp10759
S'invalu'
p10760
aNatp10761
bag1
(g2
(I0
tp10762
g4
tp10763
Rp10764
(I1
(I2
tp10765
g11
I00
(lp10766
S'Librarys'
p10767
aNatp10768
bag1
(g2
(I0
tp10769
g4
tp10770
Rp10771
(I1
(I2
tp10772
g11
I00
(lp10773
S'forgav'
p10774
aNatp10775
bag1
(g2
(I0
tp10776
g4
tp10777
Rp10778
(I1
(I2
tp10779
g11
I00
(lp10780
S'condens'
p10781
aNatp10782
bag1
(g2
(I0
tp10783
g4
tp10784
Rp10785
(I1
(I2
tp10786
g11
I00
(lp10787
S'unconnect'
p10788
aNatp10789
bag1
(g2
(I0
tp10790
g4
tp10791
Rp10792
(I1
(I2
tp10793
g11
I00
(lp10794
S'141st'
p10795
aNatp10796
bag1
(g2
(I0
tp10797
g4
tp10798
Rp10799
(I1
(I2
tp10800
g11
I00
(lp10801
S'exclusionari'
p10802
aNatp10803
bag1
(g2
(I0
tp10804
g4
tp10805
Rp10806
(I1
(I2
tp10807
g11
I00
(lp10808
S'Dastyari'
p10809
aNatp10810
bag1
(g2
(I0
tp10811
g4
tp10812
Rp10813
(I1
(I2
tp10814
g11
I00
(lp10815
S'noncompet'
p10816
aNatp10817
bag1
(g2
(I0
tp10818
g4
tp10819
Rp10820
(I1
(I2
tp10821
g11
I00
(lp10822
S'Soccers'
p10823
aNatp10824
bag1
(g2
(I0
tp10825
g4
tp10826
Rp10827
(I1
(I2
tp10828
g11
I00
(lp10829
S'GTC4Lusso'
p10830
aNatp10831
bag1
(g2
(I0
tp10832
g4
tp10833
Rp10834
(I1
(I2
tp10835
g11
I00
(lp10836
S'Basus'
p10837
aNatp10838
bag1
(g2
(I0
tp10839
g4
tp10840
Rp10841
(I1
(I2
tp10842
g11
I00
(lp10843
S'manli'
p10844
aNatp10845
bag1
(g2
(I0
tp10846
g4
tp10847
Rp10848
(I1
(I2
tp10849
g11
I00
(lp10850
S'colorect'
p10851
aNatp10852
bag1
(g2
(I0
tp10853
g4
tp10854
Rp10855
(I1
(I2
tp10856
g11
I00
(lp10857
S'patriarchi'
p10858
aNatp10859
bag1
(g2
(I0
tp10860
g4
tp10861
Rp10862
(I1
(I2
tp10863
g11
I00
(lp10864
S'intestin'
p10865
aNatp10866
bag1
(g2
(I0
tp10867
g4
tp10868
Rp10869
(I1
(I2
tp10870
g11
I00
(lp10871
S'Antonionis'
p10872
aNatp10873
bag1
(g2
(I0
tp10874
g4
tp10875
Rp10876
(I1
(I2
tp10877
g11
I00
(lp10878
S'pointi'
p10879
aNatp10880
bag1
(g2
(I0
tp10881
g4
tp10882
Rp10883
(I1
(I2
tp10884
g11
I00
(lp10885
S'Sunac'
p10886
aNatp10887
bag1
(g2
(I0
tp10888
g4
tp10889
Rp10890
(I1
(I2
tp10891
g11
I00
(lp10892
S'metronom'
p10893
aNatp10894
bag1
(g2
(I0
tp10895
g4
tp10896
Rp10897
(I1
(I2
tp10898
g11
I00
(lp10899
S'Dianas'
p10900
aNatp10901
bag1
(g2
(I0
tp10902
g4
tp10903
Rp10904
(I1
(I2
tp10905
g11
I00
(lp10906
S'140-character'
p10907
aNatp10908
bag1
(g2
(I0
tp10909
g4
tp10910
Rp10911
(I1
(I2
tp10912
g11
I00
(lp10913
S'Lattingtown'
p10914
aNatp10915
bag1
(g2
(I0
tp10916
g4
tp10917
Rp10918
(I1
(I2
tp10919
g11
I00
(lp10920
S'Dantzic'
p10921
aNatp10922
bag1
(g2
(I0
tp10923
g4
tp10924
Rp10925
(I1
(I2
tp10926
g11
I00
(lp10927
S'Gelmans'
p10928
aNatp10929
bag1
(g2
(I0
tp10930
g4
tp10931
Rp10932
(I1
(I2
tp10933
g11
I00
(lp10934
S'plebiscit'
p10935
aNatp10936
bag1
(g2
(I0
tp10937
g4
tp10938
Rp10939
(I1
(I2
tp10940
g11
I00
(lp10941
S'unreport'
p10942
aNatp10943
bag1
(g2
(I0
tp10944
g4
tp10945
Rp10946
(I1
(I2
tp10947
g11
I00
(lp10948
S'hydroelectr'
p10949
aNatp10950
bag1
(g2
(I0
tp10951
g4
tp10952
Rp10953
(I1
(I2
tp10954
g11
I00
(lp10955
S'208'
p10956
aNatp10957
bag1
(g2
(I0
tp10958
g4
tp10959
Rp10960
(I1
(I2
tp10961
g11
I00
(lp10962
S'Emoji'
p10963
aNatp10964
bag1
(g2
(I0
tp10965
g4
tp10966
Rp10967
(I1
(I2
tp10968
g11
I00
(lp10969
S'amic'
p10970
aNatp10971
bag1
(g2
(I0
tp10972
g4
tp10973
Rp10974
(I1
(I2
tp10975
g11
I00
(lp10976
S'Boeheims'
p10977
aNatp10978
bag1
(g2
(I0
tp10979
g4
tp10980
Rp10981
(I1
(I2
tp10982
g11
I00
(lp10983
S'Pflag'
p10984
aNatp10985
bag1
(g2
(I0
tp10986
g4
tp10987
Rp10988
(I1
(I2
tp10989
g11
I00
(lp10990
S'beehiv'
p10991
aNatp10992
bag1
(g2
(I0
tp10993
g4
tp10994
Rp10995
(I1
(I2
tp10996
g11
I00
(lp10997
S'Wonkery'
p10998
aNatp10999
bag1
(g2
(I0
tp11000
g4
tp11001
Rp11002
(I1
(I2
tp11003
g11
I00
(lp11004
S'unprov'
p11005
aNatp11006
bag1
(g2
(I0
tp11007
g4
tp11008
Rp11009
(I1
(I2
tp11010
g11
I00
(lp11011
S'abhorr'
p11012
aNatp11013
bag1
(g2
(I0
tp11014
g4
tp11015
Rp11016
(I1
(I2
tp11017
g11
I00
(lp11018
S'equin'
p11019
aNatp11020
bag1
(g2
(I0
tp11021
g4
tp11022
Rp11023
(I1
(I2
tp11024
g11
I00
(lp11025
S'purifi'
p11026
aNatp11027
bag1
(g2
(I0
tp11028
g4
tp11029
Rp11030
(I1
(I2
tp11031
g11
I00
(lp11032
S'148'
p11033
aNatp11034
bag1
(g2
(I0
tp11035
g4
tp11036
Rp11037
(I1
(I2
tp11038
g11
I00
(lp11039
S'146'
p11040
aNatp11041
bag1
(g2
(I0
tp11042
g4
tp11043
Rp11044
(I1
(I2
tp11045
g11
I00
(lp11046
S'telltal'
p11047
aNatp11048
bag1
(g2
(I0
tp11049
g4
tp11050
Rp11051
(I1
(I2
tp11052
g11
I00
(lp11053
S'96th'
p11054
aNatp11055
bag1
(g2
(I0
tp11056
g4
tp11057
Rp11058
(I1
(I2
tp11059
g11
I00
(lp11060
S'McDormands'
p11061
aNatp11062
bag1
(g2
(I0
tp11063
g4
tp11064
Rp11065
(I1
(I2
tp11066
g11
I00
(lp11067
S'paraleg'
p11068
aNatp11069
bag1
(g2
(I0
tp11070
g4
tp11071
Rp11072
(I1
(I2
tp11073
g11
I00
(lp11074
S'usabl'
p11075
aNatp11076
bag1
(g2
(I0
tp11077
g4
tp11078
Rp11079
(I1
(I2
tp11080
g11
I00
(lp11081
S'metaphys'
p11082
aNatp11083
bag1
(g2
(I0
tp11084
g4
tp11085
Rp11086
(I1
(I2
tp11087
g11
I00
(lp11088
S'cathart'
p11089
aNatp11090
bag1
(g2
(I0
tp11091
g4
tp11092
Rp11093
(I1
(I2
tp11094
g11
I00
(lp11095
S'83rd'
p11096
aNatp11097
bag1
(g2
(I0
tp11098
g4
tp11099
Rp11100
(I1
(I2
tp11101
g11
I00
(lp11102
S'2018-19'
p11103
aNatp11104
bag1
(g2
(I0
tp11105
g4
tp11106
Rp11107
(I1
(I2
tp11108
g11
I00
(lp11109
S'stuntwomen'
p11110
aNatp11111
bag1
(g2
(I0
tp11112
g4
tp11113
Rp11114
(I1
(I2
tp11115
g11
I00
(lp11116
S'antiviru'
p11117
aNatp11118
bag1
(g2
(I0
tp11119
g4
tp11120
Rp11121
(I1
(I2
tp11122
g11
I00
(lp11123
S'harcel'
p11124
aNatp11125
bag1
(g2
(I0
tp11126
g4
tp11127
Rp11128
(I1
(I2
tp11129
g11
I00
(lp11130
S'incongru'
p11131
aNatp11132
bag1
(g2
(I0
tp11133
g4
tp11134
Rp11135
(I1
(I2
tp11136
g11
I00
(lp11137
S'travesti'
p11138
aNatp11139
bag1
(g2
(I0
tp11140
g4
tp11141
Rp11142
(I1
(I2
tp11143
g11
I00
(lp11144
S'crackl'
p11145
aNatp11146
bag1
(g2
(I0
tp11147
g4
tp11148
Rp11149
(I1
(I2
tp11150
g11
I00
(lp11151
S'Rubys'
p11152
aNatp11153
bag1
(g2
(I0
tp11154
g4
tp11155
Rp11156
(I1
(I2
tp11157
g11
I00
(lp11158
S'Henda'
p11159
aNatp11160
bag1
(g2
(I0
tp11161
g4
tp11162
Rp11163
(I1
(I2
tp11164
g11
I00
(lp11165
S'consecr'
p11166
aNatp11167
bag1
(g2
(I0
tp11168
g4
tp11169
Rp11170
(I1
(I2
tp11171
g11
I00
(lp11172
S'saxophon'
p11173
aNatp11174
bag1
(g2
(I0
tp11175
g4
tp11176
Rp11177
(I1
(I2
tp11178
g11
I00
(lp11179
S'cabinetri'
p11180
aNatp11181
bag1
(g2
(I0
tp11182
g4
tp11183
Rp11184
(I1
(I2
tp11185
g11
I00
(lp11186
S'Schoenholz'
p11187
aNatp11188
bag1
(g2
(I0
tp11189
g4
tp11190
Rp11191
(I1
(I2
tp11192
g11
I00
(lp11193
S'hitmak'
p11194
aNatp11195
bag1
(g2
(I0
tp11196
g4
tp11197
Rp11198
(I1
(I2
tp11199
g11
I00
(lp11200
S'radioact'
p11201
aNatp11202
bag1
(g2
(I0
tp11203
g4
tp11204
Rp11205
(I1
(I2
tp11206
g11
I00
(lp11207
S'cloy'
p11208
aNatp11209
bag1
(g2
(I0
tp11210
g4
tp11211
Rp11212
(I1
(I2
tp11213
g11
I00
(lp11214
S'esophag'
p11215
aNatp11216
bag1
(g2
(I0
tp11217
g4
tp11218
Rp11219
(I1
(I2
tp11220
g11
I00
(lp11221
S'trampolin'
p11222
aNatp11223
bag1
(g2
(I0
tp11224
g4
tp11225
Rp11226
(I1
(I2
tp11227
g11
I00
(lp11228
S'microbiom'
p11229
aNatp11230
bag1
(g2
(I0
tp11231
g4
tp11232
Rp11233
(I1
(I2
tp11234
g11
I00
(lp11235
S'hummu'
p11236
aNatp11237
bag1
(g2
(I0
tp11238
g4
tp11239
Rp11240
(I1
(I2
tp11241
g11
I00
(lp11242
S'illog'
p11243
aNatp11244
bag1
(g2
(I0
tp11245
g4
tp11246
Rp11247
(I1
(I2
tp11248
g11
I00
(lp11249
S'bedsid'
p11250
aNatp11251
bag1
(g2
(I0
tp11252
g4
tp11253
Rp11254
(I1
(I2
tp11255
g11
I00
(lp11256
S'jingl'
p11257
aNatp11258
bag1
(g2
(I0
tp11259
g4
tp11260
Rp11261
(I1
(I2
tp11262
g11
I00
(lp11263
S'repriev'
p11264
aNatp11265
bag1
(g2
(I0
tp11266
g4
tp11267
Rp11268
(I1
(I2
tp11269
g11
I00
(lp11270
S'cumul'
p11271
aNatp11272
bag1
(g2
(I0
tp11273
g4
tp11274
Rp11275
(I1
(I2
tp11276
g11
I00
(lp11277
S'Targaryen'
p11278
aNatp11279
bag1
(g2
(I0
tp11280
g4
tp11281
Rp11282
(I1
(I2
tp11283
g11
I00
(lp11284
S'brussel'
p11285
aNatp11286
bag1
(g2
(I0
tp11287
g4
tp11288
Rp11289
(I1
(I2
tp11290
g11
I00
(lp11291
S'Borowick'
p11292
aNatp11293
bag1
(g2
(I0
tp11294
g4
tp11295
Rp11296
(I1
(I2
tp11297
g11
I00
(lp11298
S'subterfug'
p11299
aNatp11300
bag1
(g2
(I0
tp11301
g4
tp11302
Rp11303
(I1
(I2
tp11304
g11
I00
(lp11305
S'Nottages'
p11306
aNatp11307
bag1
(g2
(I0
tp11308
g4
tp11309
Rp11310
(I1
(I2
tp11311
g11
I00
(lp11312
S'Valongo'
p11313
aNatp11314
bag1
(g2
(I0
tp11315
g4
tp11316
Rp11317
(I1
(I2
tp11318
g11
I00
(lp11319
S'Feinsteins'
p11320
aNatp11321
bag1
(g2
(I0
tp11322
g4
tp11323
Rp11324
(I1
(I2
tp11325
g11
I00
(lp11326
S'boobi'
p11327
aNatp11328
bag1
(g2
(I0
tp11329
g4
tp11330
Rp11331
(I1
(I2
tp11332
g11
I00
(lp11333
S'loudspeak'
p11334
aNatp11335
bag1
(g2
(I0
tp11336
g4
tp11337
Rp11338
(I1
(I2
tp11339
g11
I00
(lp11340
S'lunchtim'
p11341
aNatp11342
bag1
(g2
(I0
tp11343
g4
tp11344
Rp11345
(I1
(I2
tp11346
g11
I00
(lp11347
S'unyield'
p11348
aNatp11349
bag1
(g2
(I0
tp11350
g4
tp11351
Rp11352
(I1
(I2
tp11353
g11
I00
(lp11354
S'ideologu'
p11355
aNatp11356
bag1
(g2
(I0
tp11357
g4
tp11358
Rp11359
(I1
(I2
tp11360
g11
I00
(lp11361
S'cring'
p11362
aNatp11363
bag1
(g2
(I0
tp11364
g4
tp11365
Rp11366
(I1
(I2
tp11367
g11
I00
(lp11368
S'Fitchs'
p11369
aNatp11370
bag1
(g2
(I0
tp11371
g4
tp11372
Rp11373
(I1
(I2
tp11374
g11
I00
(lp11375
S'Wisemans'
p11376
aNatp11377
bag1
(g2
(I0
tp11378
g4
tp11379
Rp11380
(I1
(I2
tp11381
g11
I00
(lp11382
S'overtour'
p11383
aNatp11384
bag1
(g2
(I0
tp11385
g4
tp11386
Rp11387
(I1
(I2
tp11388
g11
I00
(lp11389
S'omnipres'
p11390
aNatp11391
bag1
(g2
(I0
tp11392
g4
tp11393
Rp11394
(I1
(I2
tp11395
g11
I00
(lp11396
S'1827'
p11397
aNatp11398
bag1
(g2
(I0
tp11399
g4
tp11400
Rp11401
(I1
(I2
tp11402
g11
I00
(lp11403
S'28-nation'
p11404
aNatp11405
bag1
(g2
(I0
tp11406
g4
tp11407
Rp11408
(I1
(I2
tp11409
g11
I00
(lp11410
S'Chychrun'
p11411
aNatp11412
bag1
(g2
(I0
tp11413
g4
tp11414
Rp11415
(I1
(I2
tp11416
g11
I00
(lp11417
S'Walcotts'
p11418
aNatp11419
bag1
(g2
(I0
tp11420
g4
tp11421
Rp11422
(I1
(I2
tp11423
g11
I00
(lp11424
S'Glamping'
p11425
aNatp11426
bag1
(g2
(I0
tp11427
g4
tp11428
Rp11429
(I1
(I2
tp11430
g11
I00
(lp11431
S'antioxid'
p11432
aNatp11433
bag1
(g2
(I0
tp11434
g4
tp11435
Rp11436
(I1
(I2
tp11437
g11
I00
(lp11438
S'Sherald'
p11439
aNatp11440
bag1
(g2
(I0
tp11441
g4
tp11442
Rp11443
(I1
(I2
tp11444
g11
I00
(lp11445
S'Masharipov'
p11446
aNatp11447
bag1
(g2
(I0
tp11448
g4
tp11449
Rp11450
(I1
(I2
tp11451
g11
I00
(lp11452
S'emb'
p11453
aNatp11454
bag1
(g2
(I0
tp11455
g4
tp11456
Rp11457
(I1
(I2
tp11458
g11
I00
(lp11459
S'muestran'
p11460
aNatp11461
bag1
(g2
(I0
tp11462
g4
tp11463
Rp11464
(I1
(I2
tp11465
g11
I00
(lp11466
S'Weike'
p11467
aNatp11468
bag1
(g2
(I0
tp11469
g4
tp11470
Rp11471
(I1
(I2
tp11472
g11
I00
(lp11473
S'66-55'
p11474
aNatp11475
bag1
(g2
(I0
tp11476
g4
tp11477
Rp11478
(I1
(I2
tp11479
g11
I00
(lp11480
S'Tucsons'
p11481
aNatp11482
bag1
(g2
(I0
tp11483
g4
tp11484
Rp11485
(I1
(I2
tp11486
g11
I00
(lp11487
S'fusillad'
p11488
aNatp11489
bag1
(g2
(I0
tp11490
g4
tp11491
Rp11492
(I1
(I2
tp11493
g11
I00
(lp11494
S'toymak'
p11495
aNatp11496
bag1
(g2
(I0
tp11497
g4
tp11498
Rp11499
(I1
(I2
tp11500
g11
I00
(lp11501
S'Tradita'
p11502
aNatp11503
bag1
(g2
(I0
tp11504
g4
tp11505
Rp11506
(I1
(I2
tp11507
g11
I00
(lp11508
S'awak'
p11509
aNatp11510
bag1
(g2
(I0
tp11511
g4
tp11512
Rp11513
(I1
(I2
tp11514
g11
I00
(lp11515
S'mapl'
p11516
aNatp11517
bag1
(g2
(I0
tp11518
g4
tp11519
Rp11520
(I1
(I2
tp11521
g11
I00
(lp11522
S'Mattiss'
p11523
aNatp11524
bag1
(g2
(I0
tp11525
g4
tp11526
Rp11527
(I1
(I2
tp11528
g11
I00
(lp11529
S'2050'
p11530
aNatp11531
bag1
(g2
(I0
tp11532
g4
tp11533
Rp11534
(I1
(I2
tp11535
g11
I00
(lp11536
S'Dublins'
p11537
aNatp11538
bag1
(g2
(I0
tp11539
g4
tp11540
Rp11541
(I1
(I2
tp11542
g11
I00
(lp11543
S'gastrointestin'
p11544
aNatp11545
bag1
(g2
(I0
tp11546
g4
tp11547
Rp11548
(I1
(I2
tp11549
g11
I00
(lp11550
S'Baylors'
p11551
aNatp11552
bag1
(g2
(I0
tp11553
g4
tp11554
Rp11555
(I1
(I2
tp11556
g11
I00
(lp11557
S'foodway'
p11558
aNatp11559
bag1
(g2
(I0
tp11560
g4
tp11561
Rp11562
(I1
(I2
tp11563
g11
I00
(lp11564
S'114-91'
p11565
aNatp11566
bag1
(g2
(I0
tp11567
g4
tp11568
Rp11569
(I1
(I2
tp11570
g11
I00
(lp11571
S'dislodg'
p11572
aNatp11573
bag1
(g2
(I0
tp11574
g4
tp11575
Rp11576
(I1
(I2
tp11577
g11
I00
(lp11578
S'ostrac'
p11579
aNatp11580
bag1
(g2
(I0
tp11581
g4
tp11582
Rp11583
(I1
(I2
tp11584
g11
I00
(lp11585
S'Smorgasburg'
p11586
aNatp11587
bag1
(g2
(I0
tp11588
g4
tp11589
Rp11590
(I1
(I2
tp11591
g11
I00
(lp11592
S'fibrosi'
p11593
aNatp11594
bag1
(g2
(I0
tp11595
g4
tp11596
Rp11597
(I1
(I2
tp11598
g11
I00
(lp11599
S'beetl'
p11600
aNatp11601
bag1
(g2
(I0
tp11602
g4
tp11603
Rp11604
(I1
(I2
tp11605
g11
I00
(lp11606
S'1906'
p11607
aNatp11608
bag1
(g2
(I0
tp11609
g4
tp11610
Rp11611
(I1
(I2
tp11612
g11
I00
(lp11613
S'nonverb'
p11614
aNatp11615
bag1
(g2
(I0
tp11616
g4
tp11617
Rp11618
(I1
(I2
tp11619
g11
I00
(lp11620
S'Beachs'
p11621
aNatp11622
bag1
(g2
(I0
tp11623
g4
tp11624
Rp11625
(I1
(I2
tp11626
g11
I00
(lp11627
S'Frankels'
p11628
aNatp11629
bag1
(g2
(I0
tp11630
g4
tp11631
Rp11632
(I1
(I2
tp11633
g11
I00
(lp11634
S'Haal'
p11635
aNatp11636
bag1
(g2
(I0
tp11637
g4
tp11638
Rp11639
(I1
(I2
tp11640
g11
I00
(lp11641
S'enamor'
p11642
aNatp11643
bag1
(g2
(I0
tp11644
g4
tp11645
Rp11646
(I1
(I2
tp11647
g11
I00
(lp11648
S'flybi'
p11649
aNatp11650
bag1
(g2
(I0
tp11651
g4
tp11652
Rp11653
(I1
(I2
tp11654
g11
I00
(lp11655
S'abstin'
p11656
aNatp11657
bag1
(g2
(I0
tp11658
g4
tp11659
Rp11660
(I1
(I2
tp11661
g11
I00
(lp11662
S'Posternak'
p11663
aNatp11664
bag1
(g2
(I0
tp11665
g4
tp11666
Rp11667
(I1
(I2
tp11668
g11
I00
(lp11669
S'Mudbound'
p11670
aNatp11671
bag1
(g2
(I0
tp11672
g4
tp11673
Rp11674
(I1
(I2
tp11675
g11
I00
(lp11676
S'Duhigg'
p11677
aNatp11678
bag1
(g2
(I0
tp11679
g4
tp11680
Rp11681
(I1
(I2
tp11682
g11
I00
(lp11683
S'Monacos'
p11684
aNatp11685
bag1
(g2
(I0
tp11686
g4
tp11687
Rp11688
(I1
(I2
tp11689
g11
I00
(lp11690
S'Orcasitas'
p11691
aNatp11692
bag1
(g2
(I0
tp11693
g4
tp11694
Rp11695
(I1
(I2
tp11696
g11
I00
(lp11697
S'undesir'
p11698
aNatp11699
bag1
(g2
(I0
tp11700
g4
tp11701
Rp11702
(I1
(I2
tp11703
g11
I00
(lp11704
S'whenev'
p11705
aNatp11706
bag1
(g2
(I0
tp11707
g4
tp11708
Rp11709
(I1
(I2
tp11710
g11
I00
(lp11711
S'gangbust'
p11712
aNatp11713
bag1
(g2
(I0
tp11714
g4
tp11715
Rp11716
(I1
(I2
tp11717
g11
I00
(lp11718
S'aquacultur'
p11719
aNatp11720
bag1
(g2
(I0
tp11721
g4
tp11722
Rp11723
(I1
(I2
tp11724
g11
I00
(lp11725
S'sandhog'
p11726
aNatp11727
bag1
(g2
(I0
tp11728
g4
tp11729
Rp11730
(I1
(I2
tp11731
g11
I00
(lp11732
S'sycamor'
p11733
aNatp11734
ba.