(lp0
cnumpy.core.multiarray
_reconstruct
p1
(cnumpy
ndarray
p2
(I0
tp3
S'b'
p4
tp5
Rp6
(I1
(I2
tp7
cnumpy
dtype
p8
(S'O8'
p9
I0
I1
tp10
Rp11
(I3
S'|'
p12
NNNI-1
I-1
I63
tp13
bI00
(lp14
S'prizewin'
p15
aNatp16
bag1
(g2
(I0
tp17
g4
tp18
Rp19
(I1
(I2
tp20
g11
I00
(lp21
S'1965-66'
p22
aNatp23
bag1
(g2
(I0
tp24
g4
tp25
Rp26
(I1
(I2
tp27
g11
I00
(lp28
S'Brooklynettes'
p29
aNatp30
bag1
(g2
(I0
tp31
g4
tp32
Rp33
(I1
(I2
tp34
g11
I00
(lp35
S'Tiemoue'
p36
aNatp37
bag1
(g2
(I0
tp38
g4
tp39
Rp40
(I1
(I2
tp41
g11
I00
(lp42
S'mientra'
p43
aNatp44
bag1
(g2
(I0
tp45
g4
tp46
Rp47
(I1
(I2
tp48
g11
I00
(lp49
S'sujet'
p50
aNatp51
bag1
(g2
(I0
tp52
g4
tp53
Rp54
(I1
(I2
tp55
g11
I00
(lp56
S'Exaggerates'
p57
aNatp58
bag1
(g2
(I0
tp59
g4
tp60
Rp61
(I1
(I2
tp62
g11
I00
(lp63
S'bringeth'
p64
aNatp65
bag1
(g2
(I0
tp66
g4
tp67
Rp68
(I1
(I2
tp69
g11
I00
(lp70
S'Reveries'
p71
aNatp72
bag1
(g2
(I0
tp73
g4
tp74
Rp75
(I1
(I2
tp76
g11
I00
(lp77
S'Nordstorm'
p78
aNatp79
bag1
(g2
(I0
tp80
g4
tp81
Rp82
(I1
(I2
tp83
g11
I00
(lp84
S'beachcomb'
p85
aNatp86
bag1
(g2
(I0
tp87
g4
tp88
Rp89
(I1
(I2
tp90
g11
I00
(lp91
S'SugarCube'
p92
aNatp93
bag1
(g2
(I0
tp94
g4
tp95
Rp96
(I1
(I2
tp97
g11
I00
(lp98
S'torcetti'
p99
aNatp100
bag1
(g2
(I0
tp101
g4
tp102
Rp103
(I1
(I2
tp104
g11
I00
(lp105
S'Vaquitas'
p106
aNatp107
bag1
(g2
(I0
tp108
g4
tp109
Rp110
(I1
(I2
tp111
g11
I00
(lp112
S'Vishner'
p113
aNatp114
bag1
(g2
(I0
tp115
g4
tp116
Rp117
(I1
(I2
tp118
g11
I00
(lp119
S'Wenderoff'
p120
aNatp121
bag1
(g2
(I0
tp122
g4
tp123
Rp124
(I1
(I2
tp125
g11
I00
(lp126
S'sealabl'
p127
aNatp128
bag1
(g2
(I0
tp129
g4
tp130
Rp131
(I1
(I2
tp132
g11
I00
(lp133
S'defoli'
p134
aNatp135
bag1
(g2
(I0
tp136
g4
tp137
Rp138
(I1
(I2
tp139
g11
I00
(lp140
S'feasibl'
p141
aNatp142
bag1
(g2
(I0
tp143
g4
tp144
Rp145
(I1
(I2
tp146
g11
I00
(lp147
S'978'
p148
aNatp149
bag1
(g2
(I0
tp150
g4
tp151
Rp152
(I1
(I2
tp153
g11
I00
(lp154
S'99-room'
p155
aNatp156
bag1
(g2
(I0
tp157
g4
tp158
Rp159
(I1
(I2
tp160
g11
I00
(lp161
S'shoegaz'
p162
aNatp163
bag1
(g2
(I0
tp164
g4
tp165
Rp166
(I1
(I2
tp167
g11
I00
(lp168
S'desespoir'
p169
aNatp170
bag1
(g2
(I0
tp171
g4
tp172
Rp173
(I1
(I2
tp174
g11
I00
(lp175
S'Zawzjan'
p176
aNatp177
bag1
(g2
(I0
tp178
g4
tp179
Rp180
(I1
(I2
tp181
g11
I00
(lp182
S'Warshawskis'
p183
aNatp184
bag1
(g2
(I0
tp185
g4
tp186
Rp187
(I1
(I2
tp188
g11
I00
(lp189
S'Plantology'
p190
aNatp191
bag1
(g2
(I0
tp192
g4
tp193
Rp194
(I1
(I2
tp195
g11
I00
(lp196
S'Messiaens'
p197
aNatp198
bag1
(g2
(I0
tp199
g4
tp200
Rp201
(I1
(I2
tp202
g11
I00
(lp203
S'19-point'
p204
aNatp205
bag1
(g2
(I0
tp206
g4
tp207
Rp208
(I1
(I2
tp209
g11
I00
(lp210
S'coal-'
p211
aNatp212
bag1
(g2
(I0
tp213
g4
tp214
Rp215
(I1
(I2
tp216
g11
I00
(lp217
S'Mezgers'
p218
aNatp219
bag1
(g2
(I0
tp220
g4
tp221
Rp222
(I1
(I2
tp223
g11
I00
(lp224
S'hunki'
p225
aNatp226
bag1
(g2
(I0
tp227
g4
tp228
Rp229
(I1
(I2
tp230
g11
I00
(lp231
S'80WSE'
p232
aNatp233
bag1
(g2
(I0
tp234
g4
tp235
Rp236
(I1
(I2
tp237
g11
I00
(lp238
S'manpow'
p239
aNatp240
bag1
(g2
(I0
tp241
g4
tp242
Rp243
(I1
(I2
tp244
g11
I00
(lp245
S'Abelove'
p246
aNatp247
bag1
(g2
(I0
tp248
g4
tp249
Rp250
(I1
(I2
tp251
g11
I00
(lp252
S'landlin'
p253
aNatp254
bag1
(g2
(I0
tp255
g4
tp256
Rp257
(I1
(I2
tp258
g11
I00
(lp259
S'NFCs'
p260
aNatp261
bag1
(g2
(I0
tp262
g4
tp263
Rp264
(I1
(I2
tp265
g11
I00
(lp266
S'TIAAs'
p267
aNatp268
bag1
(g2
(I0
tp269
g4
tp270
Rp271
(I1
(I2
tp272
g11
I00
(lp273
S'Macerated'
p274
aNatp275
bag1
(g2
(I0
tp276
g4
tp277
Rp278
(I1
(I2
tp279
g11
I00
(lp280
S'hypothesi'
p281
aNatp282
bag1
(g2
(I0
tp283
g4
tp284
Rp285
(I1
(I2
tp286
g11
I00
(lp287
S'72-minute'
p288
aNatp289
bag1
(g2
(I0
tp290
g4
tp291
Rp292
(I1
(I2
tp293
g11
I00
(lp294
S'Tiggly'
p295
aNatp296
bag1
(g2
(I0
tp297
g4
tp298
Rp299
(I1
(I2
tp300
g11
I00
(lp301
S'5694'
p302
aNatp303
bag1
(g2
(I0
tp304
g4
tp305
Rp306
(I1
(I2
tp307
g11
I00
(lp308
S'Kralkin'
p309
aNatp310
bag1
(g2
(I0
tp311
g4
tp312
Rp313
(I1
(I2
tp314
g11
I00
(lp315
S'Pompeos'
p316
aNatp317
bag1
(g2
(I0
tp318
g4
tp319
Rp320
(I1
(I2
tp321
g11
I00
(lp322
S'Chirps'
p323
aNatp324
bag1
(g2
(I0
tp325
g4
tp326
Rp327
(I1
(I2
tp328
g11
I00
(lp329
S'hackl'
p330
aNatp331
bag1
(g2
(I0
tp332
g4
tp333
Rp334
(I1
(I2
tp335
g11
I00
(lp336
S'Norwichs'
p337
aNatp338
bag1
(g2
(I0
tp339
g4
tp340
Rp341
(I1
(I2
tp342
g11
I00
(lp343
S'Brocklehursts'
p344
aNatp345
bag1
(g2
(I0
tp346
g4
tp347
Rp348
(I1
(I2
tp349
g11
I00
(lp350
S'nonimmigr'
p351
aNatp352
bag1
(g2
(I0
tp353
g4
tp354
Rp355
(I1
(I2
tp356
g11
I00
(lp357
S'parri'
p358
aNatp359
bag1
(g2
(I0
tp360
g4
tp361
Rp362
(I1
(I2
tp363
g11
I00
(lp364
S'Yazdis'
p365
aNatp366
bag1
(g2
(I0
tp367
g4
tp368
Rp369
(I1
(I2
tp370
g11
I00
(lp371
S'37th'
p372
aNatp373
bag1
(g2
(I0
tp374
g4
tp375
Rp376
(I1
(I2
tp377
g11
I00
(lp378
S'begrudg'
p379
aNatp380
bag1
(g2
(I0
tp381
g4
tp382
Rp383
(I1
(I2
tp384
g11
I00
(lp385
S'stylu'
p386
aNatp387
bag1
(g2
(I0
tp388
g4
tp389
Rp390
(I1
(I2
tp391
g11
I00
(lp392
S'horoscop'
p393
aNatp394
bag1
(g2
(I0
tp395
g4
tp396
Rp397
(I1
(I2
tp398
g11
I00
(lp399
S'8,980-mile'
p400
aNatp401
bag1
(g2
(I0
tp402
g4
tp403
Rp404
(I1
(I2
tp405
g11
I00
(lp406
S'chiefli'
p407
aNatp408
ba.