(lp0
cnumpy.core.multiarray
_reconstruct
p1
(cnumpy
ndarray
p2
(I0
tp3
S'b'
p4
tp5
Rp6
(I1
(I2
tp7
cnumpy
dtype
p8
(S'O8'
p9
I0
I1
tp10
Rp11
(I3
S'|'
p12
NNNI-1
I-1
I63
tp13
bI00
(lp14
S'prizewin'
p15
aNatp16
bag1
(g2
(I0
tp17
g4
tp18
Rp19
(I1
(I2
tp20
g11
I00
(lp21
S'1965-66'
p22
aNatp23
bag1
(g2
(I0
tp24
g4
tp25
Rp26
(I1
(I2
tp27
g11
I00
(lp28
S'Brooklynettes'
p29
aNatp30
bag1
(g2
(I0
tp31
g4
tp32
Rp33
(I1
(I2
tp34
g11
I00
(lp35
S'Tiemoue'
p36
aNatp37
bag1
(g2
(I0
tp38
g4
tp39
Rp40
(I1
(I2
tp41
g11
I00
(lp42
S'mientra'
p43
aNatp44
bag1
(g2
(I0
tp45
g4
tp46
Rp47
(I1
(I2
tp48
g11
I00
(lp49
S'sujet'
p50
aNatp51
bag1
(g2
(I0
tp52
g4
tp53
Rp54
(I1
(I2
tp55
g11
I00
(lp56
S'Exaggerates'
p57
aNatp58
bag1
(g2
(I0
tp59
g4
tp60
Rp61
(I1
(I2
tp62
g11
I00
(lp63
S'bringeth'
p64
aNatp65
bag1
(g2
(I0
tp66
g4
tp67
Rp68
(I1
(I2
tp69
g11
I00
(lp70
S'Reveries'
p71
aNatp72
bag1
(g2
(I0
tp73
g4
tp74
Rp75
(I1
(I2
tp76
g11
I00
(lp77
S'Nordstorm'
p78
aNatp79
bag1
(g2
(I0
tp80
g4
tp81
Rp82
(I1
(I2
tp83
g11
I00
(lp84
S'beachcomb'
p85
aNatp86
bag1
(g2
(I0
tp87
g4
tp88
Rp89
(I1
(I2
tp90
g11
I00
(lp91
S'SugarCube'
p92
aNatp93
bag1
(g2
(I0
tp94
g4
tp95
Rp96
(I1
(I2
tp97
g11
I00
(lp98
S'torcetti'
p99
aNatp100
bag1
(g2
(I0
tp101
g4
tp102
Rp103
(I1
(I2
tp104
g11
I00
(lp105
S'Vaquitas'
p106
aNatp107
bag1
(g2
(I0
tp108
g4
tp109
Rp110
(I1
(I2
tp111
g11
I00
(lp112
S'Vishner'
p113
aNatp114
bag1
(g2
(I0
tp115
g4
tp116
Rp117
(I1
(I2
tp118
g11
I00
(lp119
S'Wenderoff'
p120
aNatp121
bag1
(g2
(I0
tp122
g4
tp123
Rp124
(I1
(I2
tp125
g11
I00
(lp126
S'sealabl'
p127
aNatp128
bag1
(g2
(I0
tp129
g4
tp130
Rp131
(I1
(I2
tp132
g11
I00
(lp133
S'defoli'
p134
aNatp135
bag1
(g2
(I0
tp136
g4
tp137
Rp138
(I1
(I2
tp139
g11
I00
(lp140
S'feasibl'
p141
aNatp142
bag1
(g2
(I0
tp143
g4
tp144
Rp145
(I1
(I2
tp146
g11
I00
(lp147
S'978'
p148
aNatp149
bag1
(g2
(I0
tp150
g4
tp151
Rp152
(I1
(I2
tp153
g11
I00
(lp154
S'99-room'
p155
aNatp156
bag1
(g2
(I0
tp157
g4
tp158
Rp159
(I1
(I2
tp160
g11
I00
(lp161
S'shoegaz'
p162
aNatp163
bag1
(g2
(I0
tp164
g4
tp165
Rp166
(I1
(I2
tp167
g11
I00
(lp168
S'desespoir'
p169
aNatp170
bag1
(g2
(I0
tp171
g4
tp172
Rp173
(I1
(I2
tp174
g11
I00
(lp175
S'Zawzjan'
p176
aNatp177
bag1
(g2
(I0
tp178
g4
tp179
Rp180
(I1
(I2
tp181
g11
I00
(lp182
S'Warshawskis'
p183
aNatp184
bag1
(g2
(I0
tp185
g4
tp186
Rp187
(I1
(I2
tp188
g11
I00
(lp189
S'Plantology'
p190
aNatp191
bag1
(g2
(I0
tp192
g4
tp193
Rp194
(I1
(I2
tp195
g11
I00
(lp196
S'Messiaens'
p197
aNatp198
bag1
(g2
(I0
tp199
g4
tp200
Rp201
(I1
(I2
tp202
g11
I00
(lp203
S'19-point'
p204
aNatp205
bag1
(g2
(I0
tp206
g4
tp207
Rp208
(I1
(I2
tp209
g11
I00
(lp210
S'coal-'
p211
aNatp212
bag1
(g2
(I0
tp213
g4
tp214
Rp215
(I1
(I2
tp216
g11
I00
(lp217
S'Mezgers'
p218
aNatp219
bag1
(g2
(I0
tp220
g4
tp221
Rp222
(I1
(I2
tp223
g11
I00
(lp224
S'hunki'
p225
aNatp226
bag1
(g2
(I0
tp227
g4
tp228
Rp229
(I1
(I2
tp230
g11
I00
(lp231
S'80WSE'
p232
aNatp233
bag1
(g2
(I0
tp234
g4
tp235
Rp236
(I1
(I2
tp237
g11
I00
(lp238
S'manpow'
p239
aNatp240
bag1
(g2
(I0
tp241
g4
tp242
Rp243
(I1
(I2
tp244
g11
I00
(lp245
S'Abelove'
p246
aNatp247
bag1
(g2
(I0
tp248
g4
tp249
Rp250
(I1
(I2
tp251
g11
I00
(lp252
S'landlin'
p253
aNatp254
bag1
(g2
(I0
tp255
g4
tp256
Rp257
(I1
(I2
tp258
g11
I00
(lp259
S'NFCs'
p260
aNatp261
bag1
(g2
(I0
tp262
g4
tp263
Rp264
(I1
(I2
tp265
g11
I00
(lp266
S'TIAAs'
p267
aNatp268
bag1
(g2
(I0
tp269
g4
tp270
Rp271
(I1
(I2
tp272
g11
I00
(lp273
S'Macerated'
p274
aNatp275
bag1
(g2
(I0
tp276
g4
tp277
Rp278
(I1
(I2
tp279
g11
I00
(lp280
S'hypothesi'
p281
aNatp282
bag1
(g2
(I0
tp283
g4
tp284
Rp285
(I1
(I2
tp286
g11
I00
(lp287
S'72-minute'
p288
aNatp289
bag1
(g2
(I0
tp290
g4
tp291
Rp292
(I1
(I2
tp293
g11
I00
(lp294
S'Tiggly'
p295
aNatp296
bag1
(g2
(I0
tp297
g4
tp298
Rp299
(I1
(I2
tp300
g11
I00
(lp301
S'5694'
p302
aNatp303
bag1
(g2
(I0
tp304
g4
tp305
Rp306
(I1
(I2
tp307
g11
I00
(lp308
S'Kralkin'
p309
aNatp310
bag1
(g2
(I0
tp311
g4
tp312
Rp313
(I1
(I2
tp314
g11
I00
(lp315
S'Pompeos'
p316
aNatp317
bag1
(g2
(I0
tp318
g4
tp319
Rp320
(I1
(I2
tp321
g11
I00
(lp322
S'Chirps'
p323
aNatp324
bag1
(g2
(I0
tp325
g4
tp326
Rp327
(I1
(I2
tp328
g11
I00
(lp329
S'hackl'
p330
aNatp331
bag1
(g2
(I0
tp332
g4
tp333
Rp334
(I1
(I2
tp335
g11
I00
(lp336
S'Norwichs'
p337
aNatp338
bag1
(g2
(I0
tp339
g4
tp340
Rp341
(I1
(I2
tp342
g11
I00
(lp343
S'Brocklehursts'
p344
aNatp345
bag1
(g2
(I0
tp346
g4
tp347
Rp348
(I1
(I2
tp349
g11
I00
(lp350
S'nonimmigr'
p351
aNatp352
bag1
(g2
(I0
tp353
g4
tp354
Rp355
(I1
(I2
tp356
g11
I00
(lp357
S'parri'
p358
aNatp359
bag1
(g2
(I0
tp360
g4
tp361
Rp362
(I1
(I2
tp363
g11
I00
(lp364
S'Yazdis'
p365
aNatp366
bag1
(g2
(I0
tp367
g4
tp368
Rp369
(I1
(I2
tp370
g11
I00
(lp371
S'37th'
p372
aNatp373
bag1
(g2
(I0
tp374
g4
tp375
Rp376
(I1
(I2
tp377
g11
I00
(lp378
S'begrudg'
p379
aNatp380
bag1
(g2
(I0
tp381
g4
tp382
Rp383
(I1
(I2
tp384
g11
I00
(lp385
S'stylu'
p386
aNatp387
bag1
(g2
(I0
tp388
g4
tp389
Rp390
(I1
(I2
tp391
g11
I00
(lp392
S'horoscop'
p393
aNatp394
bag1
(g2
(I0
tp395
g4
tp396
Rp397
(I1
(I2
tp398
g11
I00
(lp399
S'8,980-mile'
p400
aNatp401
bag1
(g2
(I0
tp402
g4
tp403
Rp404
(I1
(I2
tp405
g11
I00
(lp406
S'chiefli'
p407
aNatp408
bag1
(g2
(I0
tp409
g4
tp410
Rp411
(I1
(I2
tp412
g11
I00
(lp413
S'1495'
p414
aNatp415
bag1
(g2
(I0
tp416
g4
tp417
Rp418
(I1
(I2
tp419
g11
I00
(lp420
S'Perainos'
p421
aNatp422
bag1
(g2
(I0
tp423
g4
tp424
Rp425
(I1
(I2
tp426
g11
I00
(lp427
S'Matsikoudis'
p428
aNatp429
bag1
(g2
(I0
tp430
g4
tp431
Rp432
(I1
(I2
tp433
g11
I00
(lp434
S'jurisprud'
p435
aNatp436
bag1
(g2
(I0
tp437
g4
tp438
Rp439
(I1
(I2
tp440
g11
I00
(lp441
S'Villalpandos'
p442
aNatp443
bag1
(g2
(I0
tp444
g4
tp445
Rp446
(I1
(I2
tp447
g11
I00
(lp448
S'77000'
p449
aNatp450
bag1
(g2
(I0
tp451
g4
tp452
Rp453
(I1
(I2
tp454
g11
I00
(lp455
S'moneymak'
p456
aNatp457
bag1
(g2
(I0
tp458
g4
tp459
Rp460
(I1
(I2
tp461
g11
I00
(lp462
S'multigovern'
p463
aNatp464
bag1
(g2
(I0
tp465
g4
tp466
Rp467
(I1
(I2
tp468
g11
I00
(lp469
S'SZA'
p470
aNatp471
bag1
(g2
(I0
tp472
g4
tp473
Rp474
(I1
(I2
tp475
g11
I00
(lp476
S'Arenado'
p477
aNatp478
bag1
(g2
(I0
tp479
g4
tp480
Rp481
(I1
(I2
tp482
g11
I00
(lp483
S'bricklay'
p484
aNatp485
bag1
(g2
(I0
tp486
g4
tp487
Rp488
(I1
(I2
tp489
g11
I00
(lp490
S'Krtek'
p491
aNatp492
bag1
(g2
(I0
tp493
g4
tp494
Rp495
(I1
(I2
tp496
g11
I00
(lp497
S'cinematographi'
p498
aNatp499
bag1
(g2
(I0
tp500
g4
tp501
Rp502
(I1
(I2
tp503
g11
I00
(lp504
S'Syngentas'
p505
aNatp506
bag1
(g2
(I0
tp507
g4
tp508
Rp509
(I1
(I2
tp510
g11
I00
(lp511
S'sanguin'
p512
aNatp513
bag1
(g2
(I0
tp514
g4
tp515
Rp516
(I1
(I2
tp517
g11
I00
(lp518
S'significa'
p519
aNatp520
bag1
(g2
(I0
tp521
g4
tp522
Rp523
(I1
(I2
tp524
g11
I00
(lp525
S'frequentement'
p526
aNatp527
bag1
(g2
(I0
tp528
g4
tp529
Rp530
(I1
(I2
tp531
g11
I00
(lp532
S'disgorg'
p533
aNatp534
bag1
(g2
(I0
tp535
g4
tp536
Rp537
(I1
(I2
tp538
g11
I00
(lp539
S'unargu'
p540
aNatp541
bag1
(g2
(I0
tp542
g4
tp543
Rp544
(I1
(I2
tp545
g11
I00
(lp546
S'Grisebach'
p547
aNatp548
bag1
(g2
(I0
tp549
g4
tp550
Rp551
(I1
(I2
tp552
g11
I00
(lp553
S'punditri'
p554
aNatp555
bag1
(g2
(I0
tp556
g4
tp557
Rp558
(I1
(I2
tp559
g11
I00
(lp560
S'KaRon'
p561
aNatp562
bag1
(g2
(I0
tp563
g4
tp564
Rp565
(I1
(I2
tp566
g11
I00
(lp567
S'Kingsleys'
p568
aNatp569
bag1
(g2
(I0
tp570
g4
tp571
Rp572
(I1
(I2
tp573
g11
I00
(lp574
S'nastepuj'
p575
aNatp576
bag1
(g2
(I0
tp577
g4
tp578
Rp579
(I1
(I2
tp580
g11
I00
(lp581
S'bluesi'
p582
aNatp583
bag1
(g2
(I0
tp584
g4
tp585
Rp586
(I1
(I2
tp587
g11
I00
(lp588
S'1970-1991'
p589
aNatp590
bag1
(g2
(I0
tp591
g4
tp592
Rp593
(I1
(I2
tp594
g11
I00
(lp595
S'Pyer'
p596
aNatp597
bag1
(g2
(I0
tp598
g4
tp599
Rp600
(I1
(I2
tp601
g11
I00
(lp602
S'hered'
p603
aNatp604
bag1
(g2
(I0
tp605
g4
tp606
Rp607
(I1
(I2
tp608
g11
I00
(lp609
S'Lamsma'
p610
aNatp611
bag1
(g2
(I0
tp612
g4
tp613
Rp614
(I1
(I2
tp615
g11
I00
(lp616
S'unbridl'
p617
aNatp618
bag1
(g2
(I0
tp619
g4
tp620
Rp621
(I1
(I2
tp622
g11
I00
(lp623
S'Hizbut'
p624
aNatp625
bag1
(g2
(I0
tp626
g4
tp627
Rp628
(I1
(I2
tp629
g11
I00
(lp630
S'bivalv'
p631
aNatp632
bag1
(g2
(I0
tp633
g4
tp634
Rp635
(I1
(I2
tp636
g11
I00
(lp637
S'modul'
p638
aNatp639
bag1
(g2
(I0
tp640
g4
tp641
Rp642
(I1
(I2
tp643
g11
I00
(lp644
S'Vlads'
p645
aNatp646
bag1
(g2
(I0
tp647
g4
tp648
Rp649
(I1
(I2
tp650
g11
I00
(lp651
S'heret'
p652
aNatp653
bag1
(g2
(I0
tp654
g4
tp655
Rp656
(I1
(I2
tp657
g11
I00
(lp658
S'300-acre'
p659
aNatp660
bag1
(g2
(I0
tp661
g4
tp662
Rp663
(I1
(I2
tp664
g11
I00
(lp665
S'Chamberss'
p666
aNatp667
bag1
(g2
(I0
tp668
g4
tp669
Rp670
(I1
(I2
tp671
g11
I00
(lp672
S'Protopopov'
p673
aNatp674
bag1
(g2
(I0
tp675
g4
tp676
Rp677
(I1
(I2
tp678
g11
I00
(lp679
S'2473'
p680
aNatp681
bag1
(g2
(I0
tp682
g4
tp683
Rp684
(I1
(I2
tp685
g11
I00
(lp686
S'Marcottes'
p687
aNatp688
bag1
(g2
(I0
tp689
g4
tp690
Rp691
(I1
(I2
tp692
g11
I00
(lp693
S'Retracted'
p694
aNatp695
bag1
(g2
(I0
tp696
g4
tp697
Rp698
(I1
(I2
tp699
g11
I00
(lp700
S'Lascanas'
p701
aNatp702
bag1
(g2
(I0
tp703
g4
tp704
Rp705
(I1
(I2
tp706
g11
I00
(lp707
S'crazili'
p708
aNatp709
bag1
(g2
(I0
tp710
g4
tp711
Rp712
(I1
(I2
tp713
g11
I00
(lp714
S'Raishani'
p715
aNatp716
bag1
(g2
(I0
tp717
g4
tp718
Rp719
(I1
(I2
tp720
g11
I00
(lp721
S'Farfetchs'
p722
aNatp723
bag1
(g2
(I0
tp724
g4
tp725
Rp726
(I1
(I2
tp727
g11
I00
(lp728
S'Amaq'
p729
aNatp730
bag1
(g2
(I0
tp731
g4
tp732
Rp733
(I1
(I2
tp734
g11
I00
(lp735
S'Dreamings'
p736
aNatp737
bag1
(g2
(I0
tp738
g4
tp739
Rp740
(I1
(I2
tp741
g11
I00
(lp742
S'Itzkoff'
p743
aNatp744
bag1
(g2
(I0
tp745
g4
tp746
Rp747
(I1
(I2
tp748
g11
I00
(lp749
S'Popovichs'
p750
aNatp751
bag1
(g2
(I0
tp752
g4
tp753
Rp754
(I1
(I2
tp755
g11
I00
(lp756
S'Magariels'
p757
aNatp758
bag1
(g2
(I0
tp759
g4
tp760
Rp761
(I1
(I2
tp762
g11
I00
(lp763
S'Rohmers'
p764
aNatp765
bag1
(g2
(I0
tp766
g4
tp767
Rp768
(I1
(I2
tp769
g11
I00
(lp770
S'indiscret'
p771
aNatp772
bag1
(g2
(I0
tp773
g4
tp774
Rp775
(I1
(I2
tp776
g11
I00
(lp777
S'lascivi'
p778
aNatp779
bag1
(g2
(I0
tp780
g4
tp781
Rp782
(I1
(I2
tp783
g11
I00
(lp784
S'Kriegers'
p785
aNatp786
bag1
(g2
(I0
tp787
g4
tp788
Rp789
(I1
(I2
tp790
g11
I00
(lp791
S'invulner'
p792
aNatp793
bag1
(g2
(I0
tp794
g4
tp795
Rp796
(I1
(I2
tp797
g11
I00
(lp798
S'dhymene'
p799
aNatp800
bag1
(g2
(I0
tp801
g4
tp802
Rp803
(I1
(I2
tp804
g11
I00
(lp805
S'Pirici'
p806
aNatp807
bag1
(g2
(I0
tp808
g4
tp809
Rp810
(I1
(I2
tp811
g11
I00
(lp812
S'Panagiota'
p813
aNatp814
bag1
(g2
(I0
tp815
g4
tp816
Rp817
(I1
(I2
tp818
g11
I00
(lp819
S'Laperrieres'
p820
aNatp821
bag1
(g2
(I0
tp822
g4
tp823
Rp824
(I1
(I2
tp825
g11
I00
(lp826
S'instalacion'
p827
aNatp828
bag1
(g2
(I0
tp829
g4
tp830
Rp831
(I1
(I2
tp832
g11
I00
(lp833
S'Naraha'
p834
aNatp835
bag1
(g2
(I0
tp836
g4
tp837
Rp838
(I1
(I2
tp839
g11
I00
(lp840
S'Frades'
p841
aNatp842
bag1
(g2
(I0
tp843
g4
tp844
Rp845
(I1
(I2
tp846
g11
I00
(lp847
S'dissimul'
p848
aNatp849
bag1
(g2
(I0
tp850
g4
tp851
Rp852
(I1
(I2
tp853
g11
I00
(lp854
S'Fieg'
p855
aNatp856
bag1
(g2
(I0
tp857
g4
tp858
Rp859
(I1
(I2
tp860
g11
I00
(lp861
S'Horbaczewski'
p862
aNatp863
bag1
(g2
(I0
tp864
g4
tp865
Rp866
(I1
(I2
tp867
g11
I00
(lp868
S'Adoboli'
p869
aNatp870
bag1
(g2
(I0
tp871
g4
tp872
Rp873
(I1
(I2
tp874
g11
I00
(lp875
S'Kwans'
p876
aNatp877
bag1
(g2
(I0
tp878
g4
tp879
Rp880
(I1
(I2
tp881
g11
I00
(lp882
S'Fort\xc3\xa9-Saunders'
p883
aNatp884
bag1
(g2
(I0
tp885
g4
tp886
Rp887
(I1
(I2
tp888
g11
I00
(lp889
S'13500'
p890
aNatp891
bag1
(g2
(I0
tp892
g4
tp893
Rp894
(I1
(I2
tp895
g11
I00
(lp896
S'71st'
p897
aNatp898
bag1
(g2
(I0
tp899
g4
tp900
Rp901
(I1
(I2
tp902
g11
I00
(lp903
S'perfidi'
p904
aNatp905
bag1
(g2
(I0
tp906
g4
tp907
Rp908
(I1
(I2
tp909
g11
I00
(lp910
S'jaundic'
p911
aNatp912
bag1
(g2
(I0
tp913
g4
tp914
Rp915
(I1
(I2
tp916
g11
I00
(lp917
S'unboth'
p918
aNatp919
bag1
(g2
(I0
tp920
g4
tp921
Rp922
(I1
(I2
tp923
g11
I00
(lp924
S'Antimissile'
p925
aNatp926
bag1
(g2
(I0
tp927
g4
tp928
Rp929
(I1
(I2
tp930
g11
I00
(lp931
S'KinderGuides'
p932
aNatp933
bag1
(g2
(I0
tp934
g4
tp935
Rp936
(I1
(I2
tp937
g11
I00
(lp938
S'Shafaks'
p939
aNatp940
bag1
(g2
(I0
tp941
g4
tp942
Rp943
(I1
(I2
tp944
g11
I00
(lp945
S'Beboe'
p946
aNatp947
bag1
(g2
(I0
tp948
g4
tp949
Rp950
(I1
(I2
tp951
g11
I00
(lp952
S'Headstand'
p953
aNatp954
bag1
(g2
(I0
tp955
g4
tp956
Rp957
(I1
(I2
tp958
g11
I00
(lp959
S'Shiso'
p960
aNatp961
bag1
(g2
(I0
tp962
g4
tp963
Rp964
(I1
(I2
tp965
g11
I00
(lp966
S'dunhil'
p967
aNatp968
bag1
(g2
(I0
tp969
g4
tp970
Rp971
(I1
(I2
tp972
g11
I00
(lp973
S'JMZ'
p974
aNatp975
bag1
(g2
(I0
tp976
g4
tp977
Rp978
(I1
(I2
tp979
g11
I00
(lp980
S'Pronts'
p981
aNatp982
bag1
(g2
(I0
tp983
g4
tp984
Rp985
(I1
(I2
tp986
g11
I00
(lp987
S'Skylynn'
p988
aNatp989
bag1
(g2
(I0
tp990
g4
tp991
Rp992
(I1
(I2
tp993
g11
I00
(lp994
S'Katrantzou'
p995
aNatp996
bag1
(g2
(I0
tp997
g4
tp998
Rp999
(I1
(I2
tp1000
g11
I00
(lp1001
S'dHiv'
p1002
aNatp1003
bag1
(g2
(I0
tp1004
g4
tp1005
Rp1006
(I1
(I2
tp1007
g11
I00
(lp1008
S'2186'
p1009
aNatp1010
bag1
(g2
(I0
tp1011
g4
tp1012
Rp1013
(I1
(I2
tp1014
g11
I00
(lp1015
S'Pazs'
p1016
aNatp1017
bag1
(g2
(I0
tp1018
g4
tp1019
Rp1020
(I1
(I2
tp1021
g11
I00
(lp1022
S'Maglieri'
p1023
aNatp1024
bag1
(g2
(I0
tp1025
g4
tp1026
Rp1027
(I1
(I2
tp1028
g11
I00
(lp1029
S'Karpovsky'
p1030
aNatp1031
bag1
(g2
(I0
tp1032
g4
tp1033
Rp1034
(I1
(I2
tp1035
g11
I00
(lp1036
S'volver'
p1037
aNatp1038
bag1
(g2
(I0
tp1039
g4
tp1040
Rp1041
(I1
(I2
tp1042
g11
I00
(lp1043
S'Phagwah'
p1044
aNatp1045
bag1
(g2
(I0
tp1046
g4
tp1047
Rp1048
(I1
(I2
tp1049
g11
I00
(lp1050
S'Kurimanzutto'
p1051
aNatp1052
bag1
(g2
(I0
tp1053
g4
tp1054
Rp1055
(I1
(I2
tp1056
g11
I00
(lp1057
S'sapphir'
p1058
aNatp1059
bag1
(g2
(I0
tp1060
g4
tp1061
Rp1062
(I1
(I2
tp1063
g11
I00
(lp1064
S'titil'
p1065
aNatp1066
bag1
(g2
(I0
tp1067
g4
tp1068
Rp1069
(I1
(I2
tp1070
g11
I00
(lp1071
S'Vigalondos'
p1072
aNatp1073
bag1
(g2
(I0
tp1074
g4
tp1075
Rp1076
(I1
(I2
tp1077
g11
I00
(lp1078
S'Abounding'
p1079
aNatp1080
bag1
(g2
(I0
tp1081
g4
tp1082
Rp1083
(I1
(I2
tp1084
g11
I00
(lp1085
S'Takatas'
p1086
aNatp1087
bag1
(g2
(I0
tp1088
g4
tp1089
Rp1090
(I1
(I2
tp1091
g11
I00
(lp1092
S'centimet'
p1093
aNatp1094
bag1
(g2
(I0
tp1095
g4
tp1096
Rp1097
(I1
(I2
tp1098
g11
I00
(lp1099
S'Bellafante'
p1100
aNatp1101
bag1
(g2
(I0
tp1102
g4
tp1103
Rp1104
(I1
(I2
tp1105
g11
I00
(lp1106
S'flutteri'
p1107
aNatp1108
bag1
(g2
(I0
tp1109
g4
tp1110
Rp1111
(I1
(I2
tp1112
g11
I00
(lp1113
S'cuidadosa'
p1114
aNatp1115
bag1
(g2
(I0
tp1116
g4
tp1117
Rp1118
(I1
(I2
tp1119
g11
I00
(lp1120
S'Neuromas'
p1121
aNatp1122
bag1
(g2
(I0
tp1123
g4
tp1124
Rp1125
(I1
(I2
tp1126
g11
I00
(lp1127
S'Anistons'
p1128
aNatp1129
bag1
(g2
(I0
tp1130
g4
tp1131
Rp1132
(I1
(I2
tp1133
g11
I00
(lp1134
S'Andreolis'
p1135
aNatp1136
bag1
(g2
(I0
tp1137
g4
tp1138
Rp1139
(I1
(I2
tp1140
g11
I00
(lp1141
S'technifi'
p1142
aNatp1143
bag1
(g2
(I0
tp1144
g4
tp1145
Rp1146
(I1
(I2
tp1147
g11
I00
(lp1148
S'Hostetters'
p1149
aNatp1150
bag1
(g2
(I0
tp1151
g4
tp1152
Rp1153
(I1
(I2
tp1154
g11
I00
(lp1155
S'NCAAis'
p1156
aNatp1157
bag1
(g2
(I0
tp1158
g4
tp1159
Rp1160
(I1
(I2
tp1161
g11
I00
(lp1162
S'Myeshia'
p1163
aNatp1164
bag1
(g2
(I0
tp1165
g4
tp1166
Rp1167
(I1
(I2
tp1168
g11
I00
(lp1169
S'2900'
p1170
aNatp1171
bag1
(g2
(I0
tp1172
g4
tp1173
Rp1174
(I1
(I2
tp1175
g11
I00
(lp1176
S'desenvolvimento'
p1177
aNatp1178
bag1
(g2
(I0
tp1179
g4
tp1180
Rp1181
(I1
(I2
tp1182
g11
I00
(lp1183
S'unturn'
p1184
aNatp1185
bag1
(g2
(I0
tp1186
g4
tp1187
Rp1188
(I1
(I2
tp1189
g11
I00
(lp1190
S'Unclebrother'
p1191
aNatp1192
bag1
(g2
(I0
tp1193
g4
tp1194
Rp1195
(I1
(I2
tp1196
g11
I00
(lp1197
S'Markeys'
p1198
aNatp1199
bag1
(g2
(I0
tp1200
g4
tp1201
Rp1202
(I1
(I2
tp1203
g11
I00
(lp1204
S'rotaviru'
p1205
aNatp1206
bag1
(g2
(I0
tp1207
g4
tp1208
Rp1209
(I1
(I2
tp1210
g11
I00
(lp1211
S'messili'
p1212
aNatp1213
bag1
(g2
(I0
tp1214
g4
tp1215
Rp1216
(I1
(I2
tp1217
g11
I00
(lp1218
S'misleadingli'
p1219
aNatp1220
bag1
(g2
(I0
tp1221
g4
tp1222
Rp1223
(I1
(I2
tp1224
g11
I00
(lp1225
S'zaatar'
p1226
aNatp1227
bag1
(g2
(I0
tp1228
g4
tp1229
Rp1230
(I1
(I2
tp1231
g11
I00
(lp1232
S'oas'
p1233
aNatp1234
bag1
(g2
(I0
tp1235
g4
tp1236
Rp1237
(I1
(I2
tp1238
g11
I00
(lp1239
S'Therell'
p1240
aNatp1241
bag1
(g2
(I0
tp1242
g4
tp1243
Rp1244
(I1
(I2
tp1245
g11
I00
(lp1246
S'scali'
p1247
aNatp1248
bag1
(g2
(I0
tp1249
g4
tp1250
Rp1251
(I1
(I2
tp1252
g11
I00
(lp1253
S'Witchfinders'
p1254
aNatp1255
bag1
(g2
(I0
tp1256
g4
tp1257
Rp1258
(I1
(I2
tp1259
g11
I00
(lp1260
S'unbecom'
p1261
aNatp1262
bag1
(g2
(I0
tp1263
g4
tp1264
Rp1265
(I1
(I2
tp1266
g11
I00
(lp1267
S'Stegomastodon'
p1268
aNatp1269
bag1
(g2
(I0
tp1270
g4
tp1271
Rp1272
(I1
(I2
tp1273
g11
I00
(lp1274
S'Gionfriddos'
p1275
aNatp1276
bag1
(g2
(I0
tp1277
g4
tp1278
Rp1279
(I1
(I2
tp1280
g11
I00
(lp1281
S'223000'
p1282
aNatp1283
bag1
(g2
(I0
tp1284
g4
tp1285
Rp1286
(I1
(I2
tp1287
g11
I00
(lp1288
S'Clavelouxs'
p1289
aNatp1290
bag1
(g2
(I0
tp1291
g4
tp1292
Rp1293
(I1
(I2
tp1294
g11
I00
(lp1295
S'dHerm'
p1296
aNatp1297
bag1
(g2
(I0
tp1298
g4
tp1299
Rp1300
(I1
(I2
tp1301
g11
I00
(lp1302
S'Sikkas'
p1303
aNatp1304
bag1
(g2
(I0
tp1305
g4
tp1306
Rp1307
(I1
(I2
tp1308
g11
I00
(lp1309
S'Dirand'
p1310
aNatp1311
bag1
(g2
(I0
tp1312
g4
tp1313
Rp1314
(I1
(I2
tp1315
g11
I00
(lp1316
S'Freeds'
p1317
aNatp1318
bag1
(g2
(I0
tp1319
g4
tp1320
Rp1321
(I1
(I2
tp1322
g11
I00
(lp1323
S'dextros'
p1324
aNatp1325
bag1
(g2
(I0
tp1326
g4
tp1327
Rp1328
(I1
(I2
tp1329
g11
I00
(lp1330
S'35-room'
p1331
aNatp1332
bag1
(g2
(I0
tp1333
g4
tp1334
Rp1335
(I1
(I2
tp1336
g11
I00
(lp1337
S'1455'
p1338
aNatp1339
bag1
(g2
(I0
tp1340
g4
tp1341
Rp1342
(I1
(I2
tp1343
g11
I00
(lp1344
S'Abdurraqibs'
p1345
aNatp1346
bag1
(g2
(I0
tp1347
g4
tp1348
Rp1349
(I1
(I2
tp1350
g11
I00
(lp1351
S'Bessas'
p1352
aNatp1353
bag1
(g2
(I0
tp1354
g4
tp1355
Rp1356
(I1
(I2
tp1357
g11
I00
(lp1358
S'pelvi'
p1359
aNatp1360
bag1
(g2
(I0
tp1361
g4
tp1362
Rp1363
(I1
(I2
tp1364
g11
I00
(lp1365
S'hecha'
p1366
aNatp1367
bag1
(g2
(I0
tp1368
g4
tp1369
Rp1370
(I1
(I2
tp1371
g11
I00
(lp1372
S'Touitou'
p1373
aNatp1374
bag1
(g2
(I0
tp1375
g4
tp1376
Rp1377
(I1
(I2
tp1378
g11
I00
(lp1379
S'Ouizguens'
p1380
aNatp1381
bag1
(g2
(I0
tp1382
g4
tp1383
Rp1384
(I1
(I2
tp1385
g11
I00
(lp1386
S'sketchi'
p1387
aNatp1388
bag1
(g2
(I0
tp1389
g4
tp1390
Rp1391
(I1
(I2
tp1392
g11
I00
(lp1393
S'Escenas'
p1394
aNatp1395
bag1
(g2
(I0
tp1396
g4
tp1397
Rp1398
(I1
(I2
tp1399
g11
I00
(lp1400
S'2360'
p1401
aNatp1402
bag1
(g2
(I0
tp1403
g4
tp1404
Rp1405
(I1
(I2
tp1406
g11
I00
(lp1407
S'Saoudiennes'
p1408
aNatp1409
bag1
(g2
(I0
tp1410
g4
tp1411
Rp1412
(I1
(I2
tp1413
g11
I00
(lp1414
S'Buchacas'
p1415
aNatp1416
bag1
(g2
(I0
tp1417
g4
tp1418
Rp1419
(I1
(I2
tp1420
g11
I00
(lp1421
S'Rokoss'
p1422
aNatp1423
bag1
(g2
(I0
tp1424
g4
tp1425
Rp1426
(I1
(I2
tp1427
g11
I00
(lp1428
S'unneut'
p1429
aNatp1430
bag1
(g2
(I0
tp1431
g4
tp1432
Rp1433
(I1
(I2
tp1434
g11
I00
(lp1435
S'DeBraan'
p1436
aNatp1437
bag1
(g2
(I0
tp1438
g4
tp1439
Rp1440
(I1
(I2
tp1441
g11
I00
(lp1442
S'Valkyrien'
p1443
aNatp1444
bag1
(g2
(I0
tp1445
g4
tp1446
Rp1447
(I1
(I2
tp1448
g11
I00
(lp1449
S'curvatur'
p1450
aNatp1451
bag1
(g2
(I0
tp1452
g4
tp1453
Rp1454
(I1
(I2
tp1455
g11
I00
(lp1456
S'DeFrino'
p1457
aNatp1458
bag1
(g2
(I0
tp1459
g4
tp1460
Rp1461
(I1
(I2
tp1462
g11
I00
(lp1463
S'Tunisiennes'
p1464
aNatp1465
bag1
(g2
(I0
tp1466
g4
tp1467
Rp1468
(I1
(I2
tp1469
g11
I00
(lp1470
S'taxabl'
p1471
aNatp1472
bag1
(g2
(I0
tp1473
g4
tp1474
Rp1475
(I1
(I2
tp1476
g11
I00
(lp1477
S'Fratino'
p1478
aNatp1479
bag1
(g2
(I0
tp1480
g4
tp1481
Rp1482
(I1
(I2
tp1483
g11
I00
(lp1484
S'nifti'
p1485
aNatp1486
bag1
(g2
(I0
tp1487
g4
tp1488
Rp1489
(I1
(I2
tp1490
g11
I00
(lp1491
S'second-'
p1492
aNatp1493
bag1
(g2
(I0
tp1494
g4
tp1495
Rp1496
(I1
(I2
tp1497
g11
I00
(lp1498
S'bloodmobil'
p1499
aNatp1500
bag1
(g2
(I0
tp1501
g4
tp1502
Rp1503
(I1
(I2
tp1504
g11
I00
(lp1505
S'Pineiros'
p1506
aNatp1507
bag1
(g2
(I0
tp1508
g4
tp1509
Rp1510
(I1
(I2
tp1511
g11
I00
(lp1512
S'Crackup'
p1513
aNatp1514
bag1
(g2
(I0
tp1515
g4
tp1516
Rp1517
(I1
(I2
tp1518
g11
I00
(lp1519
S'nosi'
p1520
aNatp1521
bag1
(g2
(I0
tp1522
g4
tp1523
Rp1524
(I1
(I2
tp1525
g11
I00
(lp1526
S'Bryanboy'
p1527
aNatp1528
bag1
(g2
(I0
tp1529
g4
tp1530
Rp1531
(I1
(I2
tp1532
g11
I00
(lp1533
S'flabbi'
p1534
aNatp1535
bag1
(g2
(I0
tp1536
g4
tp1537
Rp1538
(I1
(I2
tp1539
g11
I00
(lp1540
S'Chalermpol'
p1541
aNatp1542
bag1
(g2
(I0
tp1543
g4
tp1544
Rp1545
(I1
(I2
tp1546
g11
I00
(lp1547
S'guttur'
p1548
aNatp1549
bag1
(g2
(I0
tp1550
g4
tp1551
Rp1552
(I1
(I2
tp1553
g11
I00
(lp1554
S'Nerlens'
p1555
aNatp1556
bag1
(g2
(I0
tp1557
g4
tp1558
Rp1559
(I1
(I2
tp1560
g11
I00
(lp1561
S'Aryna'
p1562
aNatp1563
bag1
(g2
(I0
tp1564
g4
tp1565
Rp1566
(I1
(I2
tp1567
g11
I00
(lp1568
S'tendent'
p1569
aNatp1570
bag1
(g2
(I0
tp1571
g4
tp1572
Rp1573
(I1
(I2
tp1574
g11
I00
(lp1575
S'Lionels'
p1576
aNatp1577
bag1
(g2
(I0
tp1578
g4
tp1579
Rp1580
(I1
(I2
tp1581
g11
I00
(lp1582
S'Yuetings'
p1583
aNatp1584
bag1
(g2
(I0
tp1585
g4
tp1586
Rp1587
(I1
(I2
tp1588
g11
I00
(lp1589
S'lunat'
p1590
aNatp1591
bag1
(g2
(I0
tp1592
g4
tp1593
Rp1594
(I1
(I2
tp1595
g11
I00
(lp1596
S'Rothleins'
p1597
aNatp1598
bag1
(g2
(I0
tp1599
g4
tp1600
Rp1601
(I1
(I2
tp1602
g11
I00
(lp1603
S'Kertess'
p1604
aNatp1605
bag1
(g2
(I0
tp1606
g4
tp1607
Rp1608
(I1
(I2
tp1609
g11
I00
(lp1610
S'Betony'
p1611
aNatp1612
bag1
(g2
(I0
tp1613
g4
tp1614
Rp1615
(I1
(I2
tp1616
g11
I00
(lp1617
S'alia'
p1618
aNatp1619
bag1
(g2
(I0
tp1620
g4
tp1621
Rp1622
(I1
(I2
tp1623
g11
I00
(lp1624
S'2015-16'
p1625
aNatp1626
bag1
(g2
(I0
tp1627
g4
tp1628
Rp1629
(I1
(I2
tp1630
g11
I00
(lp1631
S'Siatta'
p1632
aNatp1633
bag1
(g2
(I0
tp1634
g4
tp1635
Rp1636
(I1
(I2
tp1637
g11
I00
(lp1638
S'Perelmans'
p1639
aNatp1640
bag1
(g2
(I0
tp1641
g4
tp1642
Rp1643
(I1
(I2
tp1644
g11
I00
(lp1645
S'Chavie'
p1646
aNatp1647
bag1
(g2
(I0
tp1648
g4
tp1649
Rp1650
(I1
(I2
tp1651
g11
I00
(lp1652
S'Burdonsky'
p1653
aNatp1654
bag1
(g2
(I0
tp1655
g4
tp1656
Rp1657
(I1
(I2
tp1658
g11
I00
(lp1659
S'Laferte'
p1660
aNatp1661
bag1
(g2
(I0
tp1662
g4
tp1663
Rp1664
(I1
(I2
tp1665
g11
I00
(lp1666
S'superexpens'
p1667
aNatp1668
bag1
(g2
(I0
tp1669
g4
tp1670
Rp1671
(I1
(I2
tp1672
g11
I00
(lp1673
S'Bruders'
p1674
aNatp1675
bag1
(g2
(I0
tp1676
g4
tp1677
Rp1678
(I1
(I2
tp1679
g11
I00
(lp1680
S'latk'
p1681
aNatp1682
bag1
(g2
(I0
tp1683
g4
tp1684
Rp1685
(I1
(I2
tp1686
g11
I00
(lp1687
S'Auerbachs'
p1688
aNatp1689
bag1
(g2
(I0
tp1690
g4
tp1691
Rp1692
(I1
(I2
tp1693
g11
I00
(lp1694
S'voluntarili'
p1695
aNatp1696
bag1
(g2
(I0
tp1697
g4
tp1698
Rp1699
(I1
(I2
tp1700
g11
I00
(lp1701
S'objectif'
p1702
aNatp1703
bag1
(g2
(I0
tp1704
g4
tp1705
Rp1706
(I1
(I2
tp1707
g11
I00
(lp1708
S'6023'
p1709
aNatp1710
bag1
(g2
(I0
tp1711
g4
tp1712
Rp1713
(I1
(I2
tp1714
g11
I00
(lp1715
S'Appelfelds'
p1716
aNatp1717
bag1
(g2
(I0
tp1718
g4
tp1719
Rp1720
(I1
(I2
tp1721
g11
I00
(lp1722
S'Michelin-'
p1723
aNatp1724
bag1
(g2
(I0
tp1725
g4
tp1726
Rp1727
(I1
(I2
tp1728
g11
I00
(lp1729
S'moart'
p1730
aNatp1731
bag1
(g2
(I0
tp1732
g4
tp1733
Rp1734
(I1
(I2
tp1735
g11
I00
(lp1736
S'closemouth'
p1737
aNatp1738
bag1
(g2
(I0
tp1739
g4
tp1740
Rp1741
(I1
(I2
tp1742
g11
I00
(lp1743
S'5,000-troop'
p1744
aNatp1745
bag1
(g2
(I0
tp1746
g4
tp1747
Rp1748
(I1
(I2
tp1749
g11
I00
(lp1750
S'iodiz'
p1751
aNatp1752
bag1
(g2
(I0
tp1753
g4
tp1754
Rp1755
(I1
(I2
tp1756
g11
I00
(lp1757
S'Yaelle'
p1758
aNatp1759
bag1
(g2
(I0
tp1760
g4
tp1761
Rp1762
(I1
(I2
tp1763
g11
I00
(lp1764
S'Corneilles'
p1765
aNatp1766
bag1
(g2
(I0
tp1767
g4
tp1768
Rp1769
(I1
(I2
tp1770
g11
I00
(lp1771
S'MMLaFleur'
p1772
aNatp1773
bag1
(g2
(I0
tp1774
g4
tp1775
Rp1776
(I1
(I2
tp1777
g11
I00
(lp1778
S'Dargiss'
p1779
aNatp1780
bag1
(g2
(I0
tp1781
g4
tp1782
Rp1783
(I1
(I2
tp1784
g11
I00
(lp1785
S'MSCIs'
p1786
aNatp1787
bag1
(g2
(I0
tp1788
g4
tp1789
Rp1790
(I1
(I2
tp1791
g11
I00
(lp1792
S'Jeannet'
p1793
aNatp1794
bag1
(g2
(I0
tp1795
g4
tp1796
Rp1797
(I1
(I2
tp1798
g11
I00
(lp1799
S'Wirecutters'
p1800
aNatp1801
bag1
(g2
(I0
tp1802
g4
tp1803
Rp1804
(I1
(I2
tp1805
g11
I00
(lp1806
S'80-year'
p1807
aNatp1808
bag1
(g2
(I0
tp1809
g4
tp1810
Rp1811
(I1
(I2
tp1812
g11
I00
(lp1813
S'Sosekis'
p1814
aNatp1815
bag1
(g2
(I0
tp1816
g4
tp1817
Rp1818
(I1
(I2
tp1819
g11
I00
(lp1820
S'overprescrib'
p1821
aNatp1822
bag1
(g2
(I0
tp1823
g4
tp1824
Rp1825
(I1
(I2
tp1826
g11
I00
(lp1827
S'conflagr'
p1828
aNatp1829
bag1
(g2
(I0
tp1830
g4
tp1831
Rp1832
(I1
(I2
tp1833
g11
I00
(lp1834
S'pansifi'
p1835
aNatp1836
bag1
(g2
(I0
tp1837
g4
tp1838
Rp1839
(I1
(I2
tp1840
g11
I00
(lp1841
S'Hillermans'
p1842
aNatp1843
bag1
(g2
(I0
tp1844
g4
tp1845
Rp1846
(I1
(I2
tp1847
g11
I00
(lp1848
S'unduli'
p1849
aNatp1850
bag1
(g2
(I0
tp1851
g4
tp1852
Rp1853
(I1
(I2
tp1854
g11
I00
(lp1855
S'grise'
p1856
aNatp1857
bag1
(g2
(I0
tp1858
g4
tp1859
Rp1860
(I1
(I2
tp1861
g11
I00
(lp1862
S'Shirinsky'
p1863
aNatp1864
bag1
(g2
(I0
tp1865
g4
tp1866
Rp1867
(I1
(I2
tp1868
g11
I00
(lp1869
S'Clowess'
p1870
aNatp1871
bag1
(g2
(I0
tp1872
g4
tp1873
Rp1874
(I1
(I2
tp1875
g11
I00
(lp1876
S'savent'
p1877
aNatp1878
bag1
(g2
(I0
tp1879
g4
tp1880
Rp1881
(I1
(I2
tp1882
g11
I00
(lp1883
S'vicari'
p1884
aNatp1885
bag1
(g2
(I0
tp1886
g4
tp1887
Rp1888
(I1
(I2
tp1889
g11
I00
(lp1890
S'Morgens'
p1891
aNatp1892
bag1
(g2
(I0
tp1893
g4
tp1894
Rp1895
(I1
(I2
tp1896
g11
I00
(lp1897
S'misbehav'
p1898
aNatp1899
bag1
(g2
(I0
tp1900
g4
tp1901
Rp1902
(I1
(I2
tp1903
g11
I00
(lp1904
S'825'
p1905
aNatp1906
bag1
(g2
(I0
tp1907
g4
tp1908
Rp1909
(I1
(I2
tp1910
g11
I00
(lp1911
S'6-to-3'
p1912
aNatp1913
bag1
(g2
(I0
tp1914
g4
tp1915
Rp1916
(I1
(I2
tp1917
g11
I00
(lp1918
S'Plaths'
p1919
aNatp1920
bag1
(g2
(I0
tp1921
g4
tp1922
Rp1923
(I1
(I2
tp1924
g11
I00
(lp1925
S'Patchetts'
p1926
aNatp1927
bag1
(g2
(I0
tp1928
g4
tp1929
Rp1930
(I1
(I2
tp1931
g11
I00
(lp1932
S'Meislin'
p1933
aNatp1934
bag1
(g2
(I0
tp1935
g4
tp1936
Rp1937
(I1
(I2
tp1938
g11
I00
(lp1939
S'adjud'
p1940
aNatp1941
bag1
(g2
(I0
tp1942
g4
tp1943
Rp1944
(I1
(I2
tp1945
g11
I00
(lp1946
S'Ceresney'
p1947
aNatp1948
bag1
(g2
(I0
tp1949
g4
tp1950
Rp1951
(I1
(I2
tp1952
g11
I00
(lp1953
S'nonacadem'
p1954
aNatp1955
bag1
(g2
(I0
tp1956
g4
tp1957
Rp1958
(I1
(I2
tp1959
g11
I00
(lp1960
S'goofbal'
p1961
aNatp1962
bag1
(g2
(I0
tp1963
g4
tp1964
Rp1965
(I1
(I2
tp1966
g11
I00
(lp1967
S'Hamersky'
p1968
aNatp1969
bag1
(g2
(I0
tp1970
g4
tp1971
Rp1972
(I1
(I2
tp1973
g11
I00
(lp1974
S'310000'
p1975
aNatp1976
bag1
(g2
(I0
tp1977
g4
tp1978
Rp1979
(I1
(I2
tp1980
g11
I00
(lp1981
S'Lopreto'
p1982
aNatp1983
bag1
(g2
(I0
tp1984
g4
tp1985
Rp1986
(I1
(I2
tp1987
g11
I00
(lp1988
S'Firedoor'
p1989
aNatp1990
bag1
(g2
(I0
tp1991
g4
tp1992
Rp1993
(I1
(I2
tp1994
g11
I00
(lp1995
S'Russophobic'
p1996
aNatp1997
bag1
(g2
(I0
tp1998
g4
tp1999
Rp2000
(I1
(I2
tp2001
g11
I00
(lp2002
S'925'
p2003
aNatp2004
bag1
(g2
(I0
tp2005
g4
tp2006
Rp2007
(I1
(I2
tp2008
g11
I00
(lp2009
S'12217'
p2010
aNatp2011
bag1
(g2
(I0
tp2012
g4
tp2013
Rp2014
(I1
(I2
tp2015
g11
I00
(lp2016
S'Statimc'
p2017
aNatp2018
bag1
(g2
(I0
tp2019
g4
tp2020
Rp2021
(I1
(I2
tp2022
g11
I00
(lp2023
S'1949-50'
p2024
aNatp2025
bag1
(g2
(I0
tp2026
g4
tp2027
Rp2028
(I1
(I2
tp2029
g11
I00
(lp2030
S'924'
p2031
aNatp2032
bag1
(g2
(I0
tp2033
g4
tp2034
Rp2035
(I1
(I2
tp2036
g11
I00
(lp2037
S'limousin'
p2038
aNatp2039
bag1
(g2
(I0
tp2040
g4
tp2041
Rp2042
(I1
(I2
tp2043
g11
I00
(lp2044
S'18500'
p2045
aNatp2046
bag1
(g2
(I0
tp2047
g4
tp2048
Rp2049
(I1
(I2
tp2050
g11
I00
(lp2051
S'Pancera'
p2052
aNatp2053
bag1
(g2
(I0
tp2054
g4
tp2055
Rp2056
(I1
(I2
tp2057
g11
I00
(lp2058
S'Maazels'
p2059
aNatp2060
bag1
(g2
(I0
tp2061
g4
tp2062
Rp2063
(I1
(I2
tp2064
g11
I00
(lp2065
S'ruddi'
p2066
aNatp2067
bag1
(g2
(I0
tp2068
g4
tp2069
Rp2070
(I1
(I2
tp2071
g11
I00
(lp2072
S'Icare'
p2073
aNatp2074
bag1
(g2
(I0
tp2075
g4
tp2076
Rp2077
(I1
(I2
tp2078
g11
I00
(lp2079
S'Maysless'
p2080
aNatp2081
bag1
(g2
(I0
tp2082
g4
tp2083
Rp2084
(I1
(I2
tp2085
g11
I00
(lp2086
S'discretionari'
p2087
aNatp2088
bag1
(g2
(I0
tp2089
g4
tp2090
Rp2091
(I1
(I2
tp2092
g11
I00
(lp2093
S'140-page'
p2094
aNatp2095
bag1
(g2
(I0
tp2096
g4
tp2097
Rp2098
(I1
(I2
tp2099
g11
I00
(lp2100
S'Torlonia'
p2101
aNatp2102
bag1
(g2
(I0
tp2103
g4
tp2104
Rp2105
(I1
(I2
tp2106
g11
I00
(lp2107
S'Rozensztroch'
p2108
aNatp2109
bag1
(g2
(I0
tp2110
g4
tp2111
Rp2112
(I1
(I2
tp2113
g11
I00
(lp2114
S'Cloggd'
p2115
aNatp2116
bag1
(g2
(I0
tp2117
g4
tp2118
Rp2119
(I1
(I2
tp2120
g11
I00
(lp2121
S'Elkinss'
p2122
aNatp2123
bag1
(g2
(I0
tp2124
g4
tp2125
Rp2126
(I1
(I2
tp2127
g11
I00
(lp2128
S'Lafayettes'
p2129
aNatp2130
bag1
(g2
(I0
tp2131
g4
tp2132
Rp2133
(I1
(I2
tp2134
g11
I00
(lp2135
S'chewi'
p2136
aNatp2137
bag1
(g2
(I0
tp2138
g4
tp2139
Rp2140
(I1
(I2
tp2141
g11
I00
(lp2142
S'bedazzl'
p2143
aNatp2144
bag1
(g2
(I0
tp2145
g4
tp2146
Rp2147
(I1
(I2
tp2148
g11
I00
(lp2149
S'Dukakiss'
p2150
aNatp2151
bag1
(g2
(I0
tp2152
g4
tp2153
Rp2154
(I1
(I2
tp2155
g11
I00
(lp2156
S'champagn'
p2157
aNatp2158
bag1
(g2
(I0
tp2159
g4
tp2160
Rp2161
(I1
(I2
tp2162
g11
I00
(lp2163
S'Grosvenors'
p2164
aNatp2165
bag1
(g2
(I0
tp2166
g4
tp2167
Rp2168
(I1
(I2
tp2169
g11
I00
(lp2170
S'Asawas'
p2171
aNatp2172
bag1
(g2
(I0
tp2173
g4
tp2174
Rp2175
(I1
(I2
tp2176
g11
I00
(lp2177
S'Upadhyays'
p2178
aNatp2179
bag1
(g2
(I0
tp2180
g4
tp2181
Rp2182
(I1
(I2
tp2183
g11
I00
(lp2184
S'Naftas'
p2185
aNatp2186
bag1
(g2
(I0
tp2187
g4
tp2188
Rp2189
(I1
(I2
tp2190
g11
I00
(lp2191
S'Sonnambula'
p2192
aNatp2193
bag1
(g2
(I0
tp2194
g4
tp2195
Rp2196
(I1
(I2
tp2197
g11
I00
(lp2198
S'cardiorespiratori'
p2199
aNatp2200
bag1
(g2
(I0
tp2201
g4
tp2202
Rp2203
(I1
(I2
tp2204
g11
I00
(lp2205
S'2525'
p2206
aNatp2207
bag1
(g2
(I0
tp2208
g4
tp2209
Rp2210
(I1
(I2
tp2211
g11
I00
(lp2212
S'Amiott'
p2213
aNatp2214
bag1
(g2
(I0
tp2215
g4
tp2216
Rp2217
(I1
(I2
tp2218
g11
I00
(lp2219
S'Reinbert'
p2220
aNatp2221
bag1
(g2
(I0
tp2222
g4
tp2223
Rp2224
(I1
(I2
tp2225
g11
I00
(lp2226
S'joailleri'
p2227
aNatp2228
bag1
(g2
(I0
tp2229
g4
tp2230
Rp2231
(I1
(I2
tp2232
g11
I00
(lp2233
S'Cashs'
p2234
aNatp2235
bag1
(g2
(I0
tp2236
g4
tp2237
Rp2238
(I1
(I2
tp2239
g11
I00
(lp2240
S'Schert'
p2241
aNatp2242
bag1
(g2
(I0
tp2243
g4
tp2244
Rp2245
(I1
(I2
tp2246
g11
I00
(lp2247
S'Farzads'
p2248
aNatp2249
bag1
(g2
(I0
tp2250
g4
tp2251
Rp2252
(I1
(I2
tp2253
g11
I00
(lp2254
S'Solets'
p2255
aNatp2256
bag1
(g2
(I0
tp2257
g4
tp2258
Rp2259
(I1
(I2
tp2260
g11
I00
(lp2261
S'1,000-yard'
p2262
aNatp2263
bag1
(g2
(I0
tp2264
g4
tp2265
Rp2266
(I1
(I2
tp2267
g11
I00
(lp2268
S'millin'
p2269
aNatp2270
bag1
(g2
(I0
tp2271
g4
tp2272
Rp2273
(I1
(I2
tp2274
g11
I00
(lp2275
S'Maiolinos'
p2276
aNatp2277
bag1
(g2
(I0
tp2278
g4
tp2279
Rp2280
(I1
(I2
tp2281
g11
I00
(lp2282
S'1163'
p2283
aNatp2284
bag1
(g2
(I0
tp2285
g4
tp2286
Rp2287
(I1
(I2
tp2288
g11
I00
(lp2289
S'Nivelo'
p2290
aNatp2291
bag1
(g2
(I0
tp2292
g4
tp2293
Rp2294
(I1
(I2
tp2295
g11
I00
(lp2296
S'Chaignaud'
p2297
aNatp2298
bag1
(g2
(I0
tp2299
g4
tp2300
Rp2301
(I1
(I2
tp2302
g11
I00
(lp2303
S'Vacui'
p2304
aNatp2305
bag1
(g2
(I0
tp2306
g4
tp2307
Rp2308
(I1
(I2
tp2309
g11
I00
(lp2310
S'Mowins'
p2311
aNatp2312
bag1
(g2
(I0
tp2313
g4
tp2314
Rp2315
(I1
(I2
tp2316
g11
I00
(lp2317
S'prefectur'
p2318
aNatp2319
bag1
(g2
(I0
tp2320
g4
tp2321
Rp2322
(I1
(I2
tp2323
g11
I00
(lp2324
S'Xaviera'
p2325
aNatp2326
ba.